	.file	"AIComponent.cpp"
	.text
.Ltext0:
	.cfi_sections	.debug_frame
	.section .rdata,"dr"
_ZStL19piecewise_construct:
	.space 1
	.align 4
_ZN9__gnu_cxxL21__default_lock_policyE:
	.long	2
_ZStL13allocator_arg:
	.space 1
_ZStL6ignore:
	.space 1
	.globl	_ZN4Tank22TankTypeToSpriteStringB5cxx11E
	.section	.data$_ZN4Tank22TankTypeToSpriteStringB5cxx11E,"w"
	.linkonce same_size
	.align 32
_ZN4Tank22TankTypeToSpriteStringB5cxx11E:
	.space 640
	.text
	.align 2
	.globl	_ZN11AIComponentC2EP4Tank
	.def	_ZN11AIComponentC2EP4Tank;	.scl	2;	.type	32;	.endef
	.seh_proc	_ZN11AIComponentC2EP4Tank
_ZN11AIComponentC2EP4Tank:
.LFB3090:
	.file 1 "N:/CPP_prj/SimpleCoding/BattleCity/src/Game/AIComponent.cpp"
	.loc 1 4 1
	.cfi_startproc
	pushq	%rbp
	.seh_pushreg	%rbp
	.cfi_def_cfa_offset 16
	.cfi_offset 6, -16
	movq	%rsp, %rbp
	.seh_setframe	%rbp, 0
	.cfi_def_cfa_register 6
	.seh_endprologue
	movq	%rcx, 16(%rbp)
	movq	%rdx, 24(%rbp)
.LBB2:
	.loc 1 5 52
	movq	16(%rbp), %rax
	movq	24(%rbp), %rdx
	movq	%rdx, (%rax)
.LBE2:
	.loc 1 8 1
	nop
	popq	%rbp
	.cfi_restore 6
	.cfi_def_cfa 7, 8
	ret
	.cfi_endproc
.LFE3090:
	.seh_endproc
	.globl	_ZN11AIComponentC1EP4Tank
	.def	_ZN11AIComponentC1EP4Tank;	.scl	2;	.type	32;	.endef
	.set	_ZN11AIComponentC1EP4Tank,_ZN11AIComponentC2EP4Tank
	.align 2
	.globl	_ZN11AIComponent6updateEd
	.def	_ZN11AIComponent6updateEd;	.scl	2;	.type	32;	.endef
	.seh_proc	_ZN11AIComponent6updateEd
_ZN11AIComponent6updateEd:
.LFB3092:
	.loc 1 11 1
	.cfi_startproc
	pushq	%rbp
	.seh_pushreg	%rbp
	.cfi_def_cfa_offset 16
	.cfi_offset 6, -16
	movq	%rsp, %rbp
	.seh_setframe	%rbp, 0
	.cfi_def_cfa_register 6
	subq	$32, %rsp
	.seh_stackalloc	32
	.seh_endprologue
	movq	%rcx, 16(%rbp)
	movsd	%xmm1, 24(%rbp)
	.loc 1 12 5
	movq	16(%rbp), %rax
	movq	(%rax), %rax
	.loc 1 12 26
	movq	%rax, %rcx
	call	_ZN4Tank4fireEv
	.loc 1 13 1
	nop
	addq	$32, %rsp
	popq	%rbp
	.cfi_restore 6
	.cfi_def_cfa 7, 8
	ret
	.cfi_endproc
.LFE3092:
	.seh_endproc
	.globl	_ZGVN4Tank22TankTypeToSpriteStringB5cxx11E
	.section	.data$_ZGVN4Tank22TankTypeToSpriteStringB5cxx11E,"w"
	.linkonce same_size
	.align 8
_ZGVN4Tank22TankTypeToSpriteStringB5cxx11E:
	.space 8
	.text
	.def	__tcf_0;	.scl	3;	.type	32;	.endef
	.seh_proc	__tcf_0
__tcf_0:
.LFB3612:
	.file 2 "N:/CPP_prj/SimpleCoding/BattleCity/src/Game/GameObjects/Tank.h"
	.loc 2 47 31
	.cfi_startproc
	pushq	%rbp
	.seh_pushreg	%rbp
	.cfi_def_cfa_offset 16
	.cfi_offset 6, -16
	pushq	%rbx
	.seh_pushreg	%rbx
	.cfi_def_cfa_offset 24
	.cfi_offset 3, -24
	subq	$40, %rsp
	.seh_stackalloc	40
	.cfi_def_cfa_offset 64
	leaq	128(%rsp), %rbp
	.seh_setframe	%rbp, 128
	.cfi_def_cfa 6, -64
	.seh_endprologue
	.loc 2 47 31
	leaq	640+_ZN4Tank22TankTypeToSpriteStringB5cxx11E(%rip), %rbx
.L5:
	.loc 2 47 31 is_stmt 0 discriminator 4
	leaq	_ZN4Tank22TankTypeToSpriteStringB5cxx11E(%rip), %rax
	cmpq	%rax, %rbx
	je	.L3
	.loc 2 47 31 discriminator 3
	subq	$32, %rbx
	movq	%rbx, %rcx
	call	_ZNSt7__cxx1112basic_stringIcSt11char_traitsIcESaIcEED1Ev
	jmp	.L5
.L3:
	.loc 2 47 31
	addq	$40, %rsp
	popq	%rbx
	.cfi_restore 3
	popq	%rbp
	.cfi_restore 6
	.cfi_def_cfa 7, -24
	ret
	.cfi_endproc
.LFE3612:
	.seh_endproc
	.section .rdata,"dr"
	.align 8
.LC0:
	.ascii "player1_yellow_tank_type1_sprite\0"
	.align 8
.LC1:
	.ascii "player1_yellow_tank_type2_sprite\0"
	.align 8
.LC2:
	.ascii "player1_yellow_tank_type3_sprite\0"
	.align 8
.LC3:
	.ascii "player1_yellow_tank_type4_sprite\0"
	.align 8
.LC4:
	.ascii "player2_green_tank_type1_sprite\0"
	.align 8
.LC5:
	.ascii "player2_green_tank_type2_sprite\0"
	.align 8
.LC6:
	.ascii "player2_green_tank_type3_sprite\0"
	.align 8
.LC7:
	.ascii "player2_green_tank_type4_sprite\0"
.LC8:
	.ascii "enemy_white_tank_type1_sprite\0"
.LC9:
	.ascii "enemy_white_tank_type2_sprite\0"
.LC10:
	.ascii "enemy_white_tank_type3_sprite\0"
.LC11:
	.ascii "enemy_white_tank_type4_sprite\0"
.LC12:
	.ascii "enemy_green_tank_type1_sprite\0"
.LC13:
	.ascii "enemy_green_tank_type2_sprite\0"
.LC14:
	.ascii "enemy_green_tank_type3_sprite\0"
.LC15:
	.ascii "enemy_green_tank_type4_sprite\0"
.LC16:
	.ascii "enemy_red_tank_type1_sprite\0"
.LC17:
	.ascii "enemy_red_tank_type2_sprite\0"
.LC18:
	.ascii "enemy_red_tank_type3_sprite\0"
.LC19:
	.ascii "enemy_red_tank_type4_sprite\0"
	.text
	.def	_Z41__static_initialization_and_destruction_0ii;	.scl	3;	.type	32;	.endef
	.seh_proc	_Z41__static_initialization_and_destruction_0ii
_Z41__static_initialization_and_destruction_0ii:
.LFB3611:
	.loc 1 13 2 is_stmt 1
	.cfi_startproc
	pushq	%rbp
	.seh_pushreg	%rbp
	.cfi_def_cfa_offset 16
	.cfi_offset 6, -16
	pushq	%rdi
	.seh_pushreg	%rdi
	.cfi_def_cfa_offset 24
	.cfi_offset 5, -24
	pushq	%rsi
	.seh_pushreg	%rsi
	.cfi_def_cfa_offset 32
	.cfi_offset 4, -32
	pushq	%rbx
	.seh_pushreg	%rbx
	.cfi_def_cfa_offset 40
	.cfi_offset 3, -40
	subq	$72, %rsp
	.seh_stackalloc	72
	.cfi_def_cfa_offset 112
	leaq	128(%rsp), %rbp
	.seh_setframe	%rbp, 128
	.cfi_def_cfa 6, -16
	.seh_endprologue
	movl	%ecx, -16(%rbp)
	movl	%edx, -8(%rbp)
	.loc 1 13 2
	cmpl	$1, -16(%rbp)
	jne	.L51
	.loc 1 13 2 is_stmt 0 discriminator 1
	cmpl	$65535, -8(%rbp)
	jne	.L51
	.loc 2 47 31 is_stmt 1
	leaq	_ZGVN4Tank22TankTypeToSpriteStringB5cxx11E(%rip), %rax
	movzbl	(%rax), %eax
	testb	%al, %al
	jne	.L51
	.loc 2 47 31 is_stmt 0 discriminator 1
	leaq	_ZGVN4Tank22TankTypeToSpriteStringB5cxx11E(%rip), %rax
	movb	$1, (%rax)
	.loc 2 72 5 is_stmt 1 discriminator 1
	leaq	_ZN4Tank22TankTypeToSpriteStringB5cxx11E(%rip), %rdi
	movl	$19, %ebx
	leaq	-84(%rbp), %rax
	movq	%rax, %rcx
	call	_ZNSaIcEC1Ev
	leaq	-84(%rbp), %rax
	movq	%rax, %r8
	leaq	.LC0(%rip), %rdx
	movq	%rdi, %rcx
.LEHB0:
	call	_ZNSt7__cxx1112basic_stringIcSt11char_traitsIcESaIcEEC1EPKcRKS3_
.LEHE0:
	.loc 2 72 5 is_stmt 0 discriminator 2
	leaq	-84(%rbp), %rax
	movq	%rax, %rcx
	call	_ZNSaIcED1Ev
	leaq	32(%rdi), %rsi
	subq	$1, %rbx
	leaq	-83(%rbp), %rax
	movq	%rax, %rcx
	call	_ZNSaIcEC1Ev
	leaq	-83(%rbp), %rax
	movq	%rax, %r8
	leaq	.LC1(%rip), %rdx
	movq	%rsi, %rcx
.LEHB1:
	call	_ZNSt7__cxx1112basic_stringIcSt11char_traitsIcESaIcEEC1EPKcRKS3_
.LEHE1:
	.loc 2 72 5 discriminator 4
	leaq	-83(%rbp), %rax
	movq	%rax, %rcx
	call	_ZNSaIcED1Ev
	addq	$32, %rsi
	subq	$1, %rbx
	leaq	-82(%rbp), %rax
	movq	%rax, %rcx
	call	_ZNSaIcEC1Ev
	leaq	-82(%rbp), %rax
	movq	%rax, %r8
	leaq	.LC2(%rip), %rdx
	movq	%rsi, %rcx
.LEHB2:
	call	_ZNSt7__cxx1112basic_stringIcSt11char_traitsIcESaIcEEC1EPKcRKS3_
.LEHE2:
	.loc 2 72 5 discriminator 6
	leaq	-82(%rbp), %rax
	movq	%rax, %rcx
	call	_ZNSaIcED1Ev
	addq	$32, %rsi
	subq	$1, %rbx
	leaq	-81(%rbp), %rax
	movq	%rax, %rcx
	call	_ZNSaIcEC1Ev
	leaq	-81(%rbp), %rax
	movq	%rax, %r8
	leaq	.LC3(%rip), %rdx
	movq	%rsi, %rcx
.LEHB3:
	call	_ZNSt7__cxx1112basic_stringIcSt11char_traitsIcESaIcEEC1EPKcRKS3_
.LEHE3:
	.loc 2 72 5 discriminator 8
	leaq	-81(%rbp), %rax
	movq	%rax, %rcx
	call	_ZNSaIcED1Ev
	addq	$32, %rsi
	subq	$1, %rbx
	leaq	-80(%rbp), %rax
	movq	%rax, %rcx
	call	_ZNSaIcEC1Ev
	leaq	-80(%rbp), %rax
	movq	%rax, %r8
	leaq	.LC4(%rip), %rdx
	movq	%rsi, %rcx
.LEHB4:
	call	_ZNSt7__cxx1112basic_stringIcSt11char_traitsIcESaIcEEC1EPKcRKS3_
.LEHE4:
	.loc 2 72 5 discriminator 10
	leaq	-80(%rbp), %rax
	movq	%rax, %rcx
	call	_ZNSaIcED1Ev
	addq	$32, %rsi
	subq	$1, %rbx
	leaq	-79(%rbp), %rax
	movq	%rax, %rcx
	call	_ZNSaIcEC1Ev
	leaq	-79(%rbp), %rax
	movq	%rax, %r8
	leaq	.LC5(%rip), %rdx
	movq	%rsi, %rcx
.LEHB5:
	call	_ZNSt7__cxx1112basic_stringIcSt11char_traitsIcESaIcEEC1EPKcRKS3_
.LEHE5:
	.loc 2 72 5 discriminator 12
	leaq	-79(%rbp), %rax
	movq	%rax, %rcx
	call	_ZNSaIcED1Ev
	addq	$32, %rsi
	subq	$1, %rbx
	leaq	-78(%rbp), %rax
	movq	%rax, %rcx
	call	_ZNSaIcEC1Ev
	leaq	-78(%rbp), %rax
	movq	%rax, %r8
	leaq	.LC6(%rip), %rdx
	movq	%rsi, %rcx
.LEHB6:
	call	_ZNSt7__cxx1112basic_stringIcSt11char_traitsIcESaIcEEC1EPKcRKS3_
.LEHE6:
	.loc 2 72 5 discriminator 14
	leaq	-78(%rbp), %rax
	movq	%rax, %rcx
	call	_ZNSaIcED1Ev
	addq	$32, %rsi
	subq	$1, %rbx
	leaq	-77(%rbp), %rax
	movq	%rax, %rcx
	call	_ZNSaIcEC1Ev
	leaq	-77(%rbp), %rax
	movq	%rax, %r8
	leaq	.LC7(%rip), %rdx
	movq	%rsi, %rcx
.LEHB7:
	call	_ZNSt7__cxx1112basic_stringIcSt11char_traitsIcESaIcEEC1EPKcRKS3_
.LEHE7:
	.loc 2 72 5 discriminator 16
	leaq	-77(%rbp), %rax
	movq	%rax, %rcx
	call	_ZNSaIcED1Ev
	addq	$32, %rsi
	subq	$1, %rbx
	leaq	-76(%rbp), %rax
	movq	%rax, %rcx
	call	_ZNSaIcEC1Ev
	leaq	-76(%rbp), %rax
	movq	%rax, %r8
	leaq	.LC8(%rip), %rdx
	movq	%rsi, %rcx
.LEHB8:
	call	_ZNSt7__cxx1112basic_stringIcSt11char_traitsIcESaIcEEC1EPKcRKS3_
.LEHE8:
	.loc 2 72 5 discriminator 18
	leaq	-76(%rbp), %rax
	movq	%rax, %rcx
	call	_ZNSaIcED1Ev
	addq	$32, %rsi
	subq	$1, %rbx
	leaq	-75(%rbp), %rax
	movq	%rax, %rcx
	call	_ZNSaIcEC1Ev
	leaq	-75(%rbp), %rax
	movq	%rax, %r8
	leaq	.LC9(%rip), %rdx
	movq	%rsi, %rcx
.LEHB9:
	call	_ZNSt7__cxx1112basic_stringIcSt11char_traitsIcESaIcEEC1EPKcRKS3_
.LEHE9:
	.loc 2 72 5 discriminator 20
	leaq	-75(%rbp), %rax
	movq	%rax, %rcx
	call	_ZNSaIcED1Ev
	addq	$32, %rsi
	subq	$1, %rbx
	leaq	-74(%rbp), %rax
	movq	%rax, %rcx
	call	_ZNSaIcEC1Ev
	leaq	-74(%rbp), %rax
	movq	%rax, %r8
	leaq	.LC10(%rip), %rdx
	movq	%rsi, %rcx
.LEHB10:
	call	_ZNSt7__cxx1112basic_stringIcSt11char_traitsIcESaIcEEC1EPKcRKS3_
.LEHE10:
	.loc 2 72 5 discriminator 22
	leaq	-74(%rbp), %rax
	movq	%rax, %rcx
	call	_ZNSaIcED1Ev
	addq	$32, %rsi
	subq	$1, %rbx
	leaq	-73(%rbp), %rax
	movq	%rax, %rcx
	call	_ZNSaIcEC1Ev
	leaq	-73(%rbp), %rax
	movq	%rax, %r8
	leaq	.LC11(%rip), %rdx
	movq	%rsi, %rcx
.LEHB11:
	call	_ZNSt7__cxx1112basic_stringIcSt11char_traitsIcESaIcEEC1EPKcRKS3_
.LEHE11:
	.loc 2 72 5 discriminator 24
	leaq	-73(%rbp), %rax
	movq	%rax, %rcx
	call	_ZNSaIcED1Ev
	addq	$32, %rsi
	subq	$1, %rbx
	leaq	-72(%rbp), %rax
	movq	%rax, %rcx
	call	_ZNSaIcEC1Ev
	leaq	-72(%rbp), %rax
	movq	%rax, %r8
	leaq	.LC12(%rip), %rdx
	movq	%rsi, %rcx
.LEHB12:
	call	_ZNSt7__cxx1112basic_stringIcSt11char_traitsIcESaIcEEC1EPKcRKS3_
.LEHE12:
	.loc 2 72 5 discriminator 26
	leaq	-72(%rbp), %rax
	movq	%rax, %rcx
	call	_ZNSaIcED1Ev
	addq	$32, %rsi
	subq	$1, %rbx
	leaq	-71(%rbp), %rax
	movq	%rax, %rcx
	call	_ZNSaIcEC1Ev
	leaq	-71(%rbp), %rax
	movq	%rax, %r8
	leaq	.LC13(%rip), %rdx
	movq	%rsi, %rcx
.LEHB13:
	call	_ZNSt7__cxx1112basic_stringIcSt11char_traitsIcESaIcEEC1EPKcRKS3_
.LEHE13:
	.loc 2 72 5 discriminator 28
	leaq	-71(%rbp), %rax
	movq	%rax, %rcx
	call	_ZNSaIcED1Ev
	addq	$32, %rsi
	subq	$1, %rbx
	leaq	-70(%rbp), %rax
	movq	%rax, %rcx
	call	_ZNSaIcEC1Ev
	leaq	-70(%rbp), %rax
	movq	%rax, %r8
	leaq	.LC14(%rip), %rdx
	movq	%rsi, %rcx
.LEHB14:
	call	_ZNSt7__cxx1112basic_stringIcSt11char_traitsIcESaIcEEC1EPKcRKS3_
.LEHE14:
	.loc 2 72 5 discriminator 30
	leaq	-70(%rbp), %rax
	movq	%rax, %rcx
	call	_ZNSaIcED1Ev
	addq	$32, %rsi
	subq	$1, %rbx
	leaq	-69(%rbp), %rax
	movq	%rax, %rcx
	call	_ZNSaIcEC1Ev
	leaq	-69(%rbp), %rax
	movq	%rax, %r8
	leaq	.LC15(%rip), %rdx
	movq	%rsi, %rcx
.LEHB15:
	call	_ZNSt7__cxx1112basic_stringIcSt11char_traitsIcESaIcEEC1EPKcRKS3_
.LEHE15:
	.loc 2 72 5 discriminator 32
	leaq	-69(%rbp), %rax
	movq	%rax, %rcx
	call	_ZNSaIcED1Ev
	addq	$32, %rsi
	subq	$1, %rbx
	leaq	-68(%rbp), %rax
	movq	%rax, %rcx
	call	_ZNSaIcEC1Ev
	leaq	-68(%rbp), %rax
	movq	%rax, %r8
	leaq	.LC16(%rip), %rdx
	movq	%rsi, %rcx
.LEHB16:
	call	_ZNSt7__cxx1112basic_stringIcSt11char_traitsIcESaIcEEC1EPKcRKS3_
.LEHE16:
	.loc 2 72 5 discriminator 34
	leaq	-68(%rbp), %rax
	movq	%rax, %rcx
	call	_ZNSaIcED1Ev
	addq	$32, %rsi
	subq	$1, %rbx
	leaq	-67(%rbp), %rax
	movq	%rax, %rcx
	call	_ZNSaIcEC1Ev
	leaq	-67(%rbp), %rax
	movq	%rax, %r8
	leaq	.LC17(%rip), %rdx
	movq	%rsi, %rcx
.LEHB17:
	call	_ZNSt7__cxx1112basic_stringIcSt11char_traitsIcESaIcEEC1EPKcRKS3_
.LEHE17:
	.loc 2 72 5 discriminator 36
	leaq	-67(%rbp), %rax
	movq	%rax, %rcx
	call	_ZNSaIcED1Ev
	addq	$32, %rsi
	subq	$1, %rbx
	leaq	-66(%rbp), %rax
	movq	%rax, %rcx
	call	_ZNSaIcEC1Ev
	leaq	-66(%rbp), %rax
	movq	%rax, %r8
	leaq	.LC18(%rip), %rdx
	movq	%rsi, %rcx
.LEHB18:
	call	_ZNSt7__cxx1112basic_stringIcSt11char_traitsIcESaIcEEC1EPKcRKS3_
.LEHE18:
	.loc 2 72 5 discriminator 38
	leaq	-66(%rbp), %rax
	movq	%rax, %rcx
	call	_ZNSaIcED1Ev
	addq	$32, %rsi
	subq	$1, %rbx
	leaq	-65(%rbp), %rax
	movq	%rax, %rcx
	call	_ZNSaIcEC1Ev
	leaq	-65(%rbp), %rax
	movq	%rax, %r8
	leaq	.LC19(%rip), %rdx
	movq	%rsi, %rcx
.LEHB19:
	call	_ZNSt7__cxx1112basic_stringIcSt11char_traitsIcESaIcEEC1EPKcRKS3_
.LEHE19:
	.loc 2 72 5 discriminator 40
	leaq	-65(%rbp), %rax
	movq	%rax, %rcx
	call	_ZNSaIcED1Ev
	.loc 2 47 31 is_stmt 1 discriminator 40
	leaq	__tcf_0(%rip), %rcx
	call	atexit
	.loc 1 13 2 discriminator 40
	jmp	.L51
.L31:
	movq	%rax, %rsi
	.loc 2 72 5
	leaq	-84(%rbp), %rax
	movq	%rax, %rcx
	call	_ZNSaIcED1Ev
	jmp	.L9
.L32:
	movq	%rax, %rsi
	leaq	-83(%rbp), %rax
	movq	%rax, %rcx
	call	_ZNSaIcED1Ev
	jmp	.L9
.L33:
	movq	%rax, %rsi
	leaq	-82(%rbp), %rax
	movq	%rax, %rcx
	call	_ZNSaIcED1Ev
	jmp	.L9
.L34:
	movq	%rax, %rsi
	leaq	-81(%rbp), %rax
	movq	%rax, %rcx
	call	_ZNSaIcED1Ev
	jmp	.L9
.L35:
	movq	%rax, %rsi
	leaq	-80(%rbp), %rax
	movq	%rax, %rcx
	call	_ZNSaIcED1Ev
	jmp	.L9
.L36:
	movq	%rax, %rsi
	leaq	-79(%rbp), %rax
	movq	%rax, %rcx
	call	_ZNSaIcED1Ev
	jmp	.L9
.L37:
	movq	%rax, %rsi
	leaq	-78(%rbp), %rax
	movq	%rax, %rcx
	call	_ZNSaIcED1Ev
	jmp	.L9
.L38:
	movq	%rax, %rsi
	leaq	-77(%rbp), %rax
	movq	%rax, %rcx
	call	_ZNSaIcED1Ev
	jmp	.L9
.L39:
	movq	%rax, %rsi
	leaq	-76(%rbp), %rax
	movq	%rax, %rcx
	call	_ZNSaIcED1Ev
	jmp	.L9
.L40:
	movq	%rax, %rsi
	leaq	-75(%rbp), %rax
	movq	%rax, %rcx
	call	_ZNSaIcED1Ev
	jmp	.L9
.L41:
	movq	%rax, %rsi
	leaq	-74(%rbp), %rax
	movq	%rax, %rcx
	call	_ZNSaIcED1Ev
	jmp	.L9
.L42:
	movq	%rax, %rsi
	leaq	-73(%rbp), %rax
	movq	%rax, %rcx
	call	_ZNSaIcED1Ev
	jmp	.L9
.L43:
	movq	%rax, %rsi
	leaq	-72(%rbp), %rax
	movq	%rax, %rcx
	call	_ZNSaIcED1Ev
	jmp	.L9
.L44:
	movq	%rax, %rsi
	leaq	-71(%rbp), %rax
	movq	%rax, %rcx
	call	_ZNSaIcED1Ev
	jmp	.L9
.L45:
	movq	%rax, %rsi
	leaq	-70(%rbp), %rax
	movq	%rax, %rcx
	call	_ZNSaIcED1Ev
	jmp	.L9
.L46:
	movq	%rax, %rsi
	leaq	-69(%rbp), %rax
	movq	%rax, %rcx
	call	_ZNSaIcED1Ev
	jmp	.L9
.L47:
	movq	%rax, %rsi
	leaq	-68(%rbp), %rax
	movq	%rax, %rcx
	call	_ZNSaIcED1Ev
	jmp	.L9
.L48:
	movq	%rax, %rsi
	leaq	-67(%rbp), %rax
	movq	%rax, %rcx
	call	_ZNSaIcED1Ev
	jmp	.L9
.L49:
	movq	%rax, %rsi
	leaq	-66(%rbp), %rax
	movq	%rax, %rcx
	call	_ZNSaIcED1Ev
	jmp	.L9
.L50:
	movq	%rax, %rsi
	leaq	-65(%rbp), %rax
	movq	%rax, %rcx
	call	_ZNSaIcED1Ev
.L9:
	testq	%rdi, %rdi
	je	.L29
	.loc 2 72 5 is_stmt 0 discriminator 2
	movl	$19, %eax
	subq	%rbx, %rax
	salq	$5, %rax
	leaq	(%rdi,%rax), %rbx
.L30:
	cmpq	%rdi, %rbx
	je	.L29
	subq	$32, %rbx
	.loc 2 72 5 discriminator 6
	movq	%rbx, %rcx
	call	_ZNSt7__cxx1112basic_stringIcSt11char_traitsIcESaIcEED1Ev
	jmp	.L30
.L29:
	movq	%rsi, %rax
	movq	%rax, %rcx
.LEHB20:
	call	_Unwind_Resume
.LEHE20:
.L51:
	.loc 1 13 2 is_stmt 1
	nop
	addq	$72, %rsp
	popq	%rbx
	.cfi_restore 3
	popq	%rsi
	.cfi_restore 4
	popq	%rdi
	.cfi_restore 5
	popq	%rbp
	.cfi_restore 6
	.cfi_def_cfa 7, -40
	ret
	.cfi_endproc
.LFE3611:
	.def	__gxx_personality_seh0;	.scl	2;	.type	32;	.endef
	.seh_handler	__gxx_personality_seh0, @unwind, @except
	.seh_handlerdata
.LLSDA3611:
	.byte	0xff
	.byte	0xff
	.byte	0x1
	.uleb128 .LLSDACSE3611-.LLSDACSB3611
.LLSDACSB3611:
	.uleb128 .LEHB0-.LFB3611
	.uleb128 .LEHE0-.LEHB0
	.uleb128 .L31-.LFB3611
	.uleb128 0
	.uleb128 .LEHB1-.LFB3611
	.uleb128 .LEHE1-.LEHB1
	.uleb128 .L32-.LFB3611
	.uleb128 0
	.uleb128 .LEHB2-.LFB3611
	.uleb128 .LEHE2-.LEHB2
	.uleb128 .L33-.LFB3611
	.uleb128 0
	.uleb128 .LEHB3-.LFB3611
	.uleb128 .LEHE3-.LEHB3
	.uleb128 .L34-.LFB3611
	.uleb128 0
	.uleb128 .LEHB4-.LFB3611
	.uleb128 .LEHE4-.LEHB4
	.uleb128 .L35-.LFB3611
	.uleb128 0
	.uleb128 .LEHB5-.LFB3611
	.uleb128 .LEHE5-.LEHB5
	.uleb128 .L36-.LFB3611
	.uleb128 0
	.uleb128 .LEHB6-.LFB3611
	.uleb128 .LEHE6-.LEHB6
	.uleb128 .L37-.LFB3611
	.uleb128 0
	.uleb128 .LEHB7-.LFB3611
	.uleb128 .LEHE7-.LEHB7
	.uleb128 .L38-.LFB3611
	.uleb128 0
	.uleb128 .LEHB8-.LFB3611
	.uleb128 .LEHE8-.LEHB8
	.uleb128 .L39-.LFB3611
	.uleb128 0
	.uleb128 .LEHB9-.LFB3611
	.uleb128 .LEHE9-.LEHB9
	.uleb128 .L40-.LFB3611
	.uleb128 0
	.uleb128 .LEHB10-.LFB3611
	.uleb128 .LEHE10-.LEHB10
	.uleb128 .L41-.LFB3611
	.uleb128 0
	.uleb128 .LEHB11-.LFB3611
	.uleb128 .LEHE11-.LEHB11
	.uleb128 .L42-.LFB3611
	.uleb128 0
	.uleb128 .LEHB12-.LFB3611
	.uleb128 .LEHE12-.LEHB12
	.uleb128 .L43-.LFB3611
	.uleb128 0
	.uleb128 .LEHB13-.LFB3611
	.uleb128 .LEHE13-.LEHB13
	.uleb128 .L44-.LFB3611
	.uleb128 0
	.uleb128 .LEHB14-.LFB3611
	.uleb128 .LEHE14-.LEHB14
	.uleb128 .L45-.LFB3611
	.uleb128 0
	.uleb128 .LEHB15-.LFB3611
	.uleb128 .LEHE15-.LEHB15
	.uleb128 .L46-.LFB3611
	.uleb128 0
	.uleb128 .LEHB16-.LFB3611
	.uleb128 .LEHE16-.LEHB16
	.uleb128 .L47-.LFB3611
	.uleb128 0
	.uleb128 .LEHB17-.LFB3611
	.uleb128 .LEHE17-.LEHB17
	.uleb128 .L48-.LFB3611
	.uleb128 0
	.uleb128 .LEHB18-.LFB3611
	.uleb128 .LEHE18-.LEHB18
	.uleb128 .L49-.LFB3611
	.uleb128 0
	.uleb128 .LEHB19-.LFB3611
	.uleb128 .LEHE19-.LEHB19
	.uleb128 .L50-.LFB3611
	.uleb128 0
	.uleb128 .LEHB20-.LFB3611
	.uleb128 .LEHE20-.LEHB20
	.uleb128 0
	.uleb128 0
.LLSDACSE3611:
	.text
	.seh_endproc
	.def	_GLOBAL__sub_I__ZN11AIComponentC2EP4Tank;	.scl	3;	.type	32;	.endef
	.seh_proc	_GLOBAL__sub_I__ZN11AIComponentC2EP4Tank
_GLOBAL__sub_I__ZN11AIComponentC2EP4Tank:
.LFB3613:
	.loc 1 13 2
	.cfi_startproc
	pushq	%rbp
	.seh_pushreg	%rbp
	.cfi_def_cfa_offset 16
	.cfi_offset 6, -16
	movq	%rsp, %rbp
	.seh_setframe	%rbp, 0
	.cfi_def_cfa_register 6
	subq	$32, %rsp
	.seh_stackalloc	32
	.seh_endprologue
	.loc 1 13 2
	movl	$65535, %edx
	movl	$1, %ecx
	call	_Z41__static_initialization_and_destruction_0ii
	nop
	addq	$32, %rsp
	popq	%rbp
	.cfi_restore 6
	.cfi_def_cfa 7, 8
	ret
	.cfi_endproc
.LFE3613:
	.seh_endproc
	.section	.ctors,"w"
	.align 8
	.quad	_GLOBAL__sub_I__ZN11AIComponentC2EP4Tank
	.text
.Letext0:
	.file 3 "C:/Program Files/CodeBlocks/MinGW/lib/gcc/x86_64-w64-mingw32/8.1.0/include/c++/bits/basic_string.h"
	.file 4 "N:/CPP_prj/SimpleCoding/BattleCity/src/Game/AIComponent.h"
	.file 5 "C:/Program Files/CodeBlocks/MinGW/lib/gcc/x86_64-w64-mingw32/8.1.0/include/c++/bits/basic_string.tcc"
	.file 6 "C:/Program Files/CodeBlocks/MinGW/lib/gcc/x86_64-w64-mingw32/8.1.0/include/c++/bits/stringfwd.h"
	.file 7 "C:/Program Files/CodeBlocks/MinGW/lib/gcc/x86_64-w64-mingw32/8.1.0/include/c++/type_traits"
	.file 8 "C:/Program Files/CodeBlocks/MinGW/lib/gcc/x86_64-w64-mingw32/8.1.0/include/c++/bits/stl_pair.h"
	.file 9 "C:/Program Files/CodeBlocks/MinGW/lib/gcc/x86_64-w64-mingw32/8.1.0/include/c++/bits/cpp_type_traits.h"
	.file 10 "C:/Program Files/CodeBlocks/MinGW/lib/gcc/x86_64-w64-mingw32/8.1.0/include/c++/bits/stl_iterator_base_types.h"
	.file 11 "C:/Program Files/CodeBlocks/MinGW/lib/gcc/x86_64-w64-mingw32/8.1.0/include/c++/debug/debug.h"
	.file 12 "C:/Program Files/CodeBlocks/MinGW/lib/gcc/x86_64-w64-mingw32/8.1.0/include/c++/bits/exception_ptr.h"
	.file 13 "C:/Program Files/CodeBlocks/MinGW/lib/gcc/x86_64-w64-mingw32/8.1.0/include/c++/x86_64-w64-mingw32/bits/c++config.h"
	.file 14 "C:/Program Files/CodeBlocks/MinGW/lib/gcc/x86_64-w64-mingw32/8.1.0/include/c++/new"
	.file 15 "C:/Program Files/CodeBlocks/MinGW/lib/gcc/x86_64-w64-mingw32/8.1.0/include/c++/bits/allocator.h"
	.file 16 "C:/Program Files/CodeBlocks/MinGW/lib/gcc/x86_64-w64-mingw32/8.1.0/include/c++/cwchar"
	.file 17 "C:/Program Files/CodeBlocks/MinGW/lib/gcc/x86_64-w64-mingw32/8.1.0/include/c++/bits/uses_allocator.h"
	.file 18 "C:/Program Files/CodeBlocks/MinGW/lib/gcc/x86_64-w64-mingw32/8.1.0/include/c++/bits/char_traits.h"
	.file 19 "C:/Program Files/CodeBlocks/MinGW/lib/gcc/x86_64-w64-mingw32/8.1.0/include/c++/cstdint"
	.file 20 "C:/Program Files/CodeBlocks/MinGW/lib/gcc/x86_64-w64-mingw32/8.1.0/include/c++/clocale"
	.file 21 "C:/Program Files/CodeBlocks/MinGW/lib/gcc/x86_64-w64-mingw32/8.1.0/include/c++/cstdlib"
	.file 22 "C:/Program Files/CodeBlocks/MinGW/lib/gcc/x86_64-w64-mingw32/8.1.0/include/c++/cstdio"
	.file 23 "C:/Program Files/CodeBlocks/MinGW/lib/gcc/x86_64-w64-mingw32/8.1.0/include/c++/bits/alloc_traits.h"
	.file 24 "C:/Program Files/CodeBlocks/MinGW/lib/gcc/x86_64-w64-mingw32/8.1.0/include/c++/initializer_list"
	.file 25 "C:/Program Files/CodeBlocks/MinGW/lib/gcc/x86_64-w64-mingw32/8.1.0/include/c++/tuple"
	.file 26 "C:/Program Files/CodeBlocks/MinGW/lib/gcc/x86_64-w64-mingw32/8.1.0/include/c++/bits/shared_ptr_base.h"
	.file 27 "C:/Program Files/CodeBlocks/MinGW/lib/gcc/x86_64-w64-mingw32/8.1.0/include/c++/bits/std_abs.h"
	.file 28 "C:/Program Files/CodeBlocks/MinGW/lib/gcc/x86_64-w64-mingw32/8.1.0/include/c++/cstddef"
	.file 29 "C:/Program Files/CodeBlocks/MinGW/lib/gcc/x86_64-w64-mingw32/8.1.0/include/c++/bits/hashtable_policy.h"
	.file 30 "C:/Program Files/CodeBlocks/MinGW/lib/gcc/x86_64-w64-mingw32/8.1.0/include/c++/functional"
	.file 31 "C:/Program Files/CodeBlocks/MinGW/lib/gcc/x86_64-w64-mingw32/8.1.0/include/c++/bits/stl_iterator_base_funcs.h"
	.file 32 "C:/Program Files/CodeBlocks/MinGW/lib/gcc/x86_64-w64-mingw32/8.1.0/include/c++/bits/predefined_ops.h"
	.file 33 "C:/Program Files/CodeBlocks/MinGW/lib/gcc/x86_64-w64-mingw32/8.1.0/include/c++/ext/new_allocator.h"
	.file 34 "C:/Program Files/CodeBlocks/MinGW/lib/gcc/x86_64-w64-mingw32/8.1.0/include/c++/ext/numeric_traits.h"
	.file 35 "C:/Program Files/CodeBlocks/MinGW/lib/gcc/x86_64-w64-mingw32/8.1.0/include/c++/ext/alloc_traits.h"
	.file 36 "C:/Program Files/CodeBlocks/MinGW/lib/gcc/x86_64-w64-mingw32/8.1.0/include/c++/bits/stl_iterator.h"
	.file 37 "C:/Program Files/CodeBlocks/MinGW/lib/gcc/x86_64-w64-mingw32/8.1.0/include/c++/ext/type_traits.h"
	.file 38 "C:/Program Files/CodeBlocks/MinGW/x86_64-w64-mingw32/include/corecrt.h"
	.file 39 "C:/Program Files/CodeBlocks/MinGW/x86_64-w64-mingw32/include/locale.h"
	.file 40 "C:/Program Files/CodeBlocks/MinGW/x86_64-w64-mingw32/include/stddef.h"
	.file 41 "C:/Program Files/CodeBlocks/MinGW/x86_64-w64-mingw32/include/wchar.h"
	.file 42 "C:/Program Files/CodeBlocks/MinGW/lib/gcc/x86_64-w64-mingw32/8.1.0/include/c++/ext/concurrence.h"
	.file 43 "C:/Program Files/CodeBlocks/MinGW/x86_64-w64-mingw32/include/swprintf.inl"
	.file 44 "C:/Program Files/CodeBlocks/MinGW/x86_64-w64-mingw32/include/time.h"
	.file 45 "C:/Program Files/CodeBlocks/MinGW/x86_64-w64-mingw32/include/pthread.h"
	.file 46 "C:/Program Files/CodeBlocks/MinGW/x86_64-w64-mingw32/include/stdint.h"
	.file 47 "C:/Program Files/CodeBlocks/MinGW/x86_64-w64-mingw32/include/stdio.h"
	.file 48 "C:/Program Files/CodeBlocks/MinGW/x86_64-w64-mingw32/include/ctype.h"
	.file 49 "C:/Program Files/CodeBlocks/MinGW/x86_64-w64-mingw32/include/stdlib.h"
	.file 50 "C:/Program Files/CodeBlocks/MinGW/x86_64-w64-mingw32/include/malloc.h"
	.file 51 "C:/Program Files/CodeBlocks/MinGW/x86_64-w64-mingw32/include/process.h"
	.file 52 "C:/Program Files/CodeBlocks/MinGW/lib/gcc/x86_64-w64-mingw32/8.1.0/include/c++/stdlib.h"
	.file 53 "N:/CPP_prj/SimpleCoding/BattleCity/external/glm/glm/detail/setup.hpp"
	.file 54 "N:/CPP_prj/SimpleCoding/BattleCity/src/Physics/PhysicsEngine.h"
	.file 55 "N:/CPP_prj/SimpleCoding/BattleCity/external/glad/include/glad/glad.h"
	.file 56 "N:/CPP_prj/SimpleCoding/BattleCity/external/glad/include/KHR/khrplatform.h"
	.file 57 "N:/CPP_prj/SimpleCoding/BattleCity/src/Renderer/VertexBuffer.h"
	.file 58 "<built-in>"