	.file	"Game.cpp"
	.text
.Ltext0:
	.cfi_sections	.debug_frame
	.section .rdata,"dr"
_ZStL19piecewise_construct:
	.space 1
	.section	.text$_ZnwyPv,"x"
	.linkonce discard
	.globl	_ZnwyPv
	.def	_ZnwyPv;	.scl	2;	.type	32;	.endef
	.seh_proc	_ZnwyPv
_ZnwyPv:
.LFB445:
	.file 1 "C:/Program Files/CodeBlocks/MinGW/lib/gcc/x86_64-w64-mingw32/8.1.0/include/c++/new"
	.loc 1 169 1
	.cfi_startproc
	pushq	%rbp
	.seh_pushreg	%rbp
	.cfi_def_cfa_offset 16
	.cfi_offset 6, -16
	movq	%rsp, %rbp
	.seh_setframe	%rbp, 0
	.cfi_def_cfa_register 6
	.seh_endprologue
	movq	%rcx, 16(%rbp)
	movq	%rdx, 24(%rbp)
	.loc 1 169 10
	movq	24(%rbp), %rax
	.loc 1 169 15
	popq	%rbp
	.cfi_restore 6
	.cfi_def_cfa 7, 8
	ret
	.cfi_endproc
.LFE445:
	.seh_endproc
	.section	.text$_ZdlPvS_,"x"
	.linkonce discard
	.globl	_ZdlPvS_
	.def	_ZdlPvS_;	.scl	2;	.type	32;	.endef
	.seh_proc	_ZdlPvS_
_ZdlPvS_:
.LFB447:
	.loc 1 174 53
	.cfi_startproc
	pushq	%rbp
	.seh_pushreg	%rbp
	.cfi_def_cfa_offset 16
	.cfi_offset 6, -16
	movq	%rsp, %rbp
	.seh_setframe	%rbp, 0
	.cfi_def_cfa_register 6
	.seh_endprologue
	movq	%rcx, 16(%rbp)
	movq	%rdx, 24(%rbp)
	.loc 1 174 55
	nop
	popq	%rbp
	.cfi_restore 6
	.cfi_def_cfa 7, 8
	ret
	.cfi_endproc
.LFE447:
	.seh_endproc
	.text
	.def	_ZL18__gthread_active_pv;	.scl	3;	.type	32;	.endef
	.seh_proc	_ZL18__gthread_active_pv
_ZL18__gthread_active_pv:
.LFB1041:
	.file 2 "C:/Program Files/CodeBlocks/MinGW/lib/gcc/x86_64-w64-mingw32/8.1.0/include/c++/x86_64-w64-mingw32/bits/gthr-default.h"
	.loc 2 300 1
	.cfi_startproc
	.seh_endprologue
	.loc 2 301 10
	movl	$1, %eax
	.loc 2 302 1
	ret
	.cfi_endproc
.LFE1041:
	.seh_endproc
	.def	_ZN9__gnu_cxxL18__exchange_and_addEPVii;	.scl	3;	.type	32;	.endef
	.seh_proc	_ZN9__gnu_cxxL18__exchange_and_addEPVii
_ZN9__gnu_cxxL18__exchange_and_addEPVii:
.LFB1071:
	.file 3 "C:/Program Files/CodeBlocks/MinGW/lib/gcc/x86_64-w64-mingw32/8.1.0/include/c++/ext/atomicity.h"
	.loc 3 49 3
	.cfi_startproc
	pushq	%rbp
	.seh_pushreg	%rbp
	.cfi_def_cfa_offset 16
	.cfi_offset 6, -16
	movq	%rsp, %rbp
	.seh_setframe	%rbp, 0
	.cfi_def_cfa_register 6
	.seh_endprologue
	movq	%rcx, 16(%rbp)
	movl	%edx, 24(%rbp)
	.loc 3 49 46
	movl	24(%rbp), %edx
	movq	16(%rbp), %rax
	lock xaddl	%edx, (%rax)
	movl	%edx, %eax
	.loc 3 49 49
	popq	%rbp
	.cfi_restore 6
	.cfi_def_cfa 7, 8
	ret
	.cfi_endproc
.LFE1071:
	.seh_endproc
	.def	_ZN9__gnu_cxxL12__atomic_addEPVii;	.scl	3;	.type	32;	.endef
	.seh_proc	_ZN9__gnu_cxxL12__atomic_addEPVii
_ZN9__gnu_cxxL12__atomic_addEPVii:
.LFB1072:
	.loc 3 53 3
	.cfi_startproc
	pushq	%rbp
	.seh_pushreg	%rbp
	.cfi_def_cfa_offset 16
	.cfi_offset 6, -16
	movq	%rsp, %rbp
	.seh_setframe	%rbp, 0
	.cfi_def_cfa_register 6
	.seh_endprologue
	movq	%rcx, 16(%rbp)
	movl	%edx, 24(%rbp)
	.loc 3 53 39
	movl	24(%rbp), %edx
	movq	16(%rbp), %rax
	lock addl	%edx, (%rax)
	.loc 3 53 42
	nop
	popq	%rbp
	.cfi_restore 6
	.cfi_def_cfa 7, 8
	ret
	.cfi_endproc
.LFE1072:
	.seh_endproc
	.def	_ZN9__gnu_cxxL25__exchange_and_add_singleEPii;	.scl	3;	.type	32;	.endef
	.seh_proc	_ZN9__gnu_cxxL25__exchange_and_add_singleEPii
_ZN9__gnu_cxxL25__exchange_and_add_singleEPii:
.LFB1073:
	.loc 3 66 3
	.cfi_startproc
	pushq	%rbp
	.seh_pushreg	%rbp
	.cfi_def_cfa_offset 16
	.cfi_offset 6, -16
	movq	%rsp, %rbp
	.seh_setframe	%rbp, 0
	.cfi_def_cfa_register 6
	subq	$16, %rsp
	.seh_stackalloc	16
	.seh_endprologue
	movq	%rcx, 16(%rbp)
	movl	%edx, 24(%rbp)
	.loc 3 67 18
	movq	16(%rbp), %rax
	movl	(%rax), %eax
	movl	%eax, -4(%rbp)
	.loc 3 68 12
	movq	16(%rbp), %rax
	movl	(%rax), %edx
	movl	24(%rbp), %eax
	addl	%eax, %edx
	movq	16(%rbp), %rax
	movl	%edx, (%rax)
	.loc 3 69 12
	movl	-4(%rbp), %eax
	.loc 3 70 3
	addq	$16, %rsp
	popq	%rbp
	.cfi_restore 6
	.cfi_def_cfa 7, 8
	ret
	.cfi_endproc
.LFE1073:
	.seh_endproc
	.def	_ZN9__gnu_cxxL19__atomic_add_singleEPii;	.scl	3;	.type	32;	.endef
	.seh_proc	_ZN9__gnu_cxxL19__atomic_add_singleEPii
_ZN9__gnu_cxxL19__atomic_add_singleEPii:
.LFB1074:
	.loc 3 74 3
	.cfi_startproc
	pushq	%rbp
	.seh_pushreg	%rbp
	.cfi_def_cfa_offset 16
	.cfi_offset 6, -16
	movq	%rsp, %rbp
	.seh_setframe	%rbp, 0
	.cfi_def_cfa_register 6
	.seh_endprologue
	movq	%rcx, 16(%rbp)
	movl	%edx, 24(%rbp)
	.loc 3 74 12
	movq	16(%rbp), %rax
	movl	(%rax), %edx
	movl	24(%rbp), %eax
	addl	%eax, %edx
	movq	16(%rbp), %rax
	movl	%edx, (%rax)
	.loc 3 74 22
	nop
	popq	%rbp
	.cfi_restore 6
	.cfi_def_cfa 7, 8
	ret
	.cfi_endproc
.LFE1074:
	.seh_endproc
	.def	_ZN9__gnu_cxxL27__exchange_and_add_dispatchEPii;	.scl	3;	.type	32;	.endef
	.seh_proc	_ZN9__gnu_cxxL27__exchange_and_add_dispatchEPii
_ZN9__gnu_cxxL27__exchange_and_add_dispatchEPii:
.LFB1075:
	.loc 3 79 3
	.cfi_startproc
	pushq	%rbp
	.seh_pushreg	%rbp
	.cfi_def_cfa_offset 16
	.cfi_offset 6, -16
	movq	%rsp, %rbp
	.seh_setframe	%rbp, 0
	.cfi_def_cfa_register 6
	subq	$32, %rsp
	.seh_stackalloc	32
	.seh_endprologue
	movq	%rcx, 16(%rbp)
	movl	%edx, 24(%rbp)
	.loc 3 81 27
	call	_ZL18__gthread_active_pv
	.loc 3 81 29
	testl	%eax, %eax
	setne	%al
	.loc 3 81 5
	testb	%al, %al
	je	.L13
	.loc 3 82 32
	movl	24(%rbp), %eax
	movl	%eax, %edx
	movq	16(%rbp), %rcx
	call	_ZN9__gnu_cxxL18__exchange_and_addEPVii
	.loc 3 82 45
	jmp	.L14
.L13:
	.loc 3 84 39
	movl	24(%rbp), %eax
	movl	%eax, %edx
	movq	16(%rbp), %rcx
	call	_ZN9__gnu_cxxL25__exchange_and_add_singleEPii
	.loc 3 84 52
	nop
.L14:
	.loc 3 88 3
	addq	$32, %rsp
	popq	%rbp
	.cfi_restore 6
	.cfi_def_cfa 7, 8
	ret
	.cfi_endproc
.LFE1075:
	.seh_endproc
	.def	_ZN9__gnu_cxxL21__atomic_add_dispatchEPii;	.scl	3;	.type	32;	.endef
	.seh_proc	_ZN9__gnu_cxxL21__atomic_add_dispatchEPii
_ZN9__gnu_cxxL21__atomic_add_dispatchEPii:
.LFB1076:
	.loc 3 93 3
	.cfi_startproc
	pushq	%rbp
	.seh_pushreg	%rbp
	.cfi_def_cfa_offset 16
	.cfi_offset 6, -16
	movq	%rsp, %rbp
	.seh_setframe	%rbp, 0
	.cfi_def_cfa_register 6
	subq	$32, %rsp
	.seh_stackalloc	32
	.seh_endprologue
	movq	%rcx, 16(%rbp)
	movl	%edx, 24(%rbp)
	.loc 3 95 27
	call	_ZL18__gthread_active_pv
	.loc 3 95 29
	testl	%eax, %eax
	setne	%al
	.loc 3 95 5
	testb	%al, %al
	je	.L16
	.loc 3 96 19
	movl	24(%rbp), %eax
	movl	%eax, %edx
	movq	16(%rbp), %rcx
	call	_ZN9__gnu_cxxL12__atomic_addEPVii
	.loc 3 102 3
	jmp	.L18
.L16:
	.loc 3 98 26
	movl	24(%rbp), %eax
	movl	%eax, %edx
	movq	16(%rbp), %rcx
	call	_ZN9__gnu_cxxL19__atomic_add_singleEPii
.L18:
	.loc 3 102 3
	nop
	addq	$32, %rsp
	popq	%rbp
	.cfi_restore 6
	.cfi_def_cfa 7, 8
	ret
	.cfi_endproc
.LFE1076:
	.seh_endproc
	.section .rdata,"dr"
	.align 4
_ZN9__gnu_cxxL21__default_lock_policyE:
	.long	2
_ZStL13allocator_arg:
	.space 1
_ZStL6ignore:
	.space 1
	.section	.text$_ZN15ResourceManager9getLevelsB5cxx11Ev,"x"
	.linkonce discard
	.globl	_ZN15ResourceManager9getLevelsB5cxx11Ev
	.def	_ZN15ResourceManager9getLevelsB5cxx11Ev;	.scl	2;	.type	32;	.endef
	.seh_proc	_ZN15ResourceManager9getLevelsB5cxx11Ev
_ZN15ResourceManager9getLevelsB5cxx11Ev:
.LFB2886:
	.file 4 "N:/CPP_prj/SimpleCoding/BattleCity/src/Resources/ResourceManager.h"
	.loc 4 47 57
	.cfi_startproc
	.seh_endprologue
	.loc 4 47 78
	movq	.refptr._ZN15ResourceManager8m_levelsB5cxx11E(%rip), %rax
	.loc 4 47 88
	ret
	.cfi_endproc
.LFE2886:
	.seh_endproc
	.section	.text$_ZN15ResourceManager14getStartScreenB5cxx11Ev,"x"
	.linkonce discard
	.globl	_ZN15ResourceManager14getStartScreenB5cxx11Ev
	.def	_ZN15ResourceManager14getStartScreenB5cxx11Ev;	.scl	2;	.type	32;	.endef
	.seh_proc	_ZN15ResourceManager14getStartScreenB5cxx11Ev
_ZN15ResourceManager14getStartScreenB5cxx11Ev:
.LFB2887:
	.loc 4 48 44
	.cfi_startproc
	.seh_endprologue
	.loc 4 48 70
	movq	.refptr._ZN15ResourceManager13m_startScreenB5cxx11E(%rip), %rax
	.loc 4 48 85
	ret
	.cfi_endproc
.LFE2887:
	.seh_endproc
.lcomm _ZStL8__ioinit,1,1
	.section	.text$_ZNSt12__shared_ptrI10IGameStateLN9__gnu_cxx12_Lock_policyE2EED2Ev,"x"
	.linkonce discard
	.align 2
	.globl	_ZNSt12__shared_ptrI10IGameStateLN9__gnu_cxx12_Lock_policyE2EED2Ev
	.def	_ZNSt12__shared_ptrI10IGameStateLN9__gnu_cxx12_Lock_policyE2EED2Ev;	.scl	2;	.type	32;	.endef
	.seh_proc	_ZNSt12__shared_ptrI10IGameStateLN9__gnu_cxx12_Lock_policyE2EED2Ev
_ZNSt12__shared_ptrI10IGameStateLN9__gnu_cxx12_Lock_policyE2EED2Ev:
.LFB5188:
	.file 5 "C:/Program Files/CodeBlocks/MinGW/lib/gcc/x86_64-w64-mingw32/8.1.0/include/c++/bits/shared_ptr_base.h"
	.loc 5 1151 7
	.cfi_startproc
	pushq	%rbp
	.seh_pushreg	%rbp
	.cfi_def_cfa_offset 16
	.cfi_offset 6, -16
	movq	%rsp, %rbp
	.seh_setframe	%rbp, 0
	.cfi_def_cfa_register 6
	subq	$32, %rsp
	.seh_stackalloc	32
	.seh_endprologue
	movq	%rcx, 16(%rbp)
.LBB2:
	.loc 5 1151 7
	movq	16(%rbp), %rax
	addq	$8, %rax
	movq	%rax, %rcx
	call	_ZNSt14__shared_countILN9__gnu_cxx12_Lock_policyE2EED1Ev
.LBE2:
	nop
	addq	$32, %rsp
	popq	%rbp
	.cfi_restore 6
	.cfi_def_cfa 7, 8
	ret
	.cfi_endproc
.LFE5188:
	.seh_endproc
	.section	.text$_ZNSt12__shared_ptrI10IGameStateLN9__gnu_cxx12_Lock_policyE2EED1Ev,"x"
	.linkonce discard
	.align 2
	.globl	_ZNSt12__shared_ptrI10IGameStateLN9__gnu_cxx12_Lock_policyE2EED1Ev
	.def	_ZNSt12__shared_ptrI10IGameStateLN9__gnu_cxx12_Lock_policyE2EED1Ev;	.scl	2;	.type	32;	.endef
	.seh_proc	_ZNSt12__shared_ptrI10IGameStateLN9__gnu_cxx12_Lock_policyE2EED1Ev
_ZNSt12__shared_ptrI10IGameStateLN9__gnu_cxx12_Lock_policyE2EED1Ev:
.LFB5189:
	.loc 5 1151 7
	.cfi_startproc
	pushq	%rbp
	.seh_pushreg	%rbp
	.cfi_def_cfa_offset 16
	.cfi_offset 6, -16
	movq	%rsp, %rbp
	.seh_setframe	%rbp, 0
	.cfi_def_cfa_register 6
	subq	$32, %rsp
	.seh_stackalloc	32
	.seh_endprologue
	movq	%rcx, 16(%rbp)
.LBB3:
	.loc 5 1151 7
	movq	16(%rbp), %rax
	addq	$8, %rax
	movq	%rax, %rcx
	call	_ZNSt14__shared_countILN9__gnu_cxx12_Lock_policyE2EED1Ev
.LBE3:
	nop
	addq	$32, %rsp
	popq	%rbp
	.cfi_restore 6
	.cfi_def_cfa 7, 8
	ret
	.cfi_endproc
.LFE5189:
	.seh_endproc
	.section	.text$_ZNSt10shared_ptrI10IGameStateED1Ev,"x"
	.linkonce discard
	.align 2
	.globl	_ZNSt10shared_ptrI10IGameStateED1Ev
	.def	_ZNSt10shared_ptrI10IGameStateED1Ev;	.scl	2;	.type	32;	.endef
	.seh_proc	_ZNSt10shared_ptrI10IGameStateED1Ev
_ZNSt10shared_ptrI10IGameStateED1Ev:
.LFB5191:
	.file 6 "C:/Program Files/CodeBlocks/MinGW/lib/gcc/x86_64-w64-mingw32/8.1.0/include/c++/bits/shared_ptr.h"
	.loc 6 103 11
	.cfi_startproc
	pushq	%rbp
	.seh_pushreg	%rbp
	.cfi_def_cfa_offset 16
	.cfi_offset 6, -16
	movq	%rsp, %rbp
	.seh_setframe	%rbp, 0
	.cfi_def_cfa_register 6
	subq	$32, %rsp
	.seh_stackalloc	32
	.seh_endprologue
	movq	%rcx, 16(%rbp)
.LBB4:
	.loc 6 103 11
	movq	16(%rbp), %rax
	movq	%rax, %rcx
	call	_ZNSt12__shared_ptrI10IGameStateLN9__gnu_cxx12_Lock_policyE2EED2Ev
.LBE4:
	nop
	addq	$32, %rsp
	popq	%rbp
	.cfi_restore 6
	.cfi_def_cfa 7, 8
	ret
	.cfi_endproc
.LFE5191:
	.seh_endproc
	.text
	.align 2
	.globl	_ZN4GameC2ERKN3glm3vecILi2EiLNS0_9qualifierE0EEE
	.def	_ZN4GameC2ERKN3glm3vecILi2EiLNS0_9qualifierE0EEE;	.scl	2;	.type	32;	.endef
	.seh_proc	_ZN4GameC2ERKN3glm3vecILi2EiLNS0_9qualifierE0EEE
_ZN4GameC2ERKN3glm3vecILi2EiLNS0_9qualifierE0EEE:
.LFB5192:
	.file 7 "N:/CPP_prj/SimpleCoding/BattleCity/src/Game/Game.cpp"
	.loc 7 20 1
	.cfi_startproc
	pushq	%rbp
	.seh_pushreg	%rbp
	.cfi_def_cfa_offset 16
	.cfi_offset 6, -16
	pushq	%rbx
	.seh_pushreg	%rbx
	.cfi_def_cfa_offset 24
	.cfi_offset 3, -24
	subq	$56, %rsp
	.seh_stackalloc	56
	.cfi_def_cfa_offset 80
	leaq	128(%rsp), %rbp
	.seh_setframe	%rbp, 128
	.cfi_def_cfa 6, -48
	.seh_endprologue
	movq	%rcx, -48(%rbp)
	movq	%rdx, -40(%rbp)
.LBB5:
	.loc 7 22 50
	movq	-48(%rbp), %rax
	movq	-40(%rbp), %rdx
	movq	(%rdx), %rdx
	movq	%rdx, 352(%rax)
	movq	-48(%rbp), %rax
	movl	$0, 360(%rax)
	movq	-48(%rbp), %rax
	addq	$368, %rax
	movq	%rax, %rcx
	call	_ZNSt10shared_ptrI10IGameStateEC1Ev
	.loc 7 24 16
	movq	-48(%rbp), %rcx
	.loc 7 24 17
	movb	$0, -81(%rbp)
	.loc 7 24 16
	leaq	-81(%rbp), %rax
	movq	%rax, %rdx
.LEHB0:
	call	_ZNSt5arrayIbLy349EE4fillERKb
.LEHE0:
.LBE5:
	.loc 7 25 1
	jmp	.L29
.L28:
	movq	%rax, %rbx
.LBB6:
	.loc 7 22 50
	movq	-48(%rbp), %rax
	addq	$368, %rax
	movq	%rax, %rcx
	call	_ZNSt10shared_ptrI10IGameStateED1Ev
	movq	%rbx, %rax
	movq	%rax, %rcx
.LEHB1:
	call	_Unwind_Resume
	nop
.LEHE1:
.L29:
.LBE6:
	.loc 7 25 1
	addq	$56, %rsp
	popq	%rbx
	.cfi_restore 3
	popq	%rbp
	.cfi_restore 6
	.cfi_def_cfa 7, -40
	ret
	.cfi_endproc
.LFE5192:
	.def	__gxx_personality_seh0;	.scl	2;	.type	32;	.endef
	.seh_handler	__gxx_personality_seh0, @unwind, @except
	.seh_handlerdata
.LLSDA5192:
	.byte	0xff
	.byte	0xff
	.byte	0x1
	.uleb128 .LLSDACSE5192-.LLSDACSB5192
.LLSDACSB5192:
	.uleb128 .LEHB0-.LFB5192
	.uleb128 .LEHE0-.LEHB0
	.uleb128 .L28-.LFB5192
	.uleb128 0
	.uleb128 .LEHB1-.LFB5192
	.uleb128 .LEHE1-.LEHB1
	.uleb128 0
	.uleb128 0
.LLSDACSE5192:
	.text
	.seh_endproc
	.globl	_ZN4GameC1ERKN3glm3vecILi2EiLNS0_9qualifierE0EEE
	.def	_ZN4GameC1ERKN3glm3vecILi2EiLNS0_9qualifierE0EEE;	.scl	2;	.type	32;	.endef
	.set	_ZN4GameC1ERKN3glm3vecILi2EiLNS0_9qualifierE0EEE,_ZN4GameC2ERKN3glm3vecILi2EiLNS0_9qualifierE0EEE
	.align 2
	.globl	_ZN4GameD2Ev
	.def	_ZN4GameD2Ev;	.scl	2;	.type	32;	.endef
	.seh_proc	_ZN4GameD2Ev
_ZN4GameD2Ev:
.LFB5195:
	.loc 7 27 1
	.cfi_startproc
	pushq	%rbp
	.seh_pushreg	%rbp
	.cfi_def_cfa_offset 16
	.cfi_offset 6, -16
	movq	%rsp, %rbp
	.seh_setframe	%rbp, 0
	.cfi_def_cfa_register 6
	subq	$32, %rsp
	.seh_stackalloc	32
	.seh_endprologue
	movq	%rcx, 16(%rbp)
.LBB7:
	.loc 7 27 13
	movq	16(%rbp), %rax
	addq	$368, %rax
	movq	%rax, %rcx
	call	_ZNSt10shared_ptrI10IGameStateED1Ev
.LBE7:
	.loc 7 30 1
	nop
	addq	$32, %rsp
	popq	%rbp
	.cfi_restore 6
	.cfi_def_cfa 7, 8
	ret
	.cfi_endproc
.LFE5195:
	.seh_endproc
	.globl	_ZN4GameD1Ev
	.def	_ZN4GameD1Ev;	.scl	2;	.type	32;	.endef
	.set	_ZN4GameD1Ev,_ZN4GameD2Ev
	.align 2
	.globl	_ZN4Game6renderEv
	.def	_ZN4Game6renderEv;	.scl	2;	.type	32;	.endef
	.seh_proc	_ZN4Game6renderEv
_ZN4Game6renderEv:
.LFB5197:
	.loc 7 33 1
	.cfi_startproc
	pushq	%rbp
	.seh_pushreg	%rbp
	.cfi_def_cfa_offset 16
	.cfi_offset 6, -16
	movq	%rsp, %rbp
	.seh_setframe	%rbp, 0
	.cfi_def_cfa_register 6
	subq	$32, %rsp
	.seh_stackalloc	32
	.seh_endprologue
	movq	%rcx, 16(%rbp)
	.loc 7 34 5
	movq	16(%rbp), %rax
	addq	$368, %rax
	.loc 7 34 25
	movq	%rax, %rcx
	call	_ZNKSt19__shared_ptr_accessI10IGameStateLN9__gnu_cxx12_Lock_policyE2ELb0ELb0EEptEv
	movq	%rax, %rdx
	.loc 7 34 35
	movq	(%rdx), %rax
	movq	(%rax), %rax
	.loc 7 34 34
	movq	%rdx, %rcx
	call	*%rax
.LVL0:
	.loc 7 35 1
	nop
	addq	$32, %rsp
	popq	%rbp
	.cfi_restore 6
	.cfi_def_cfa 7, 8
	ret
	.cfi_endproc
.LFE5197:
	.seh_endproc
	.align 2
	.globl	_ZN4Game6updateEd
	.def	_ZN4Game6updateEd;	.scl	2;	.type	32;	.endef
	.seh_proc	_ZN4Game6updateEd
_ZN4Game6updateEd:
.LFB5198:
	.loc 7 38 1
	.cfi_startproc
	pushq	%rbp
	.seh_pushreg	%rbp
	.cfi_def_cfa_offset 16
	.cfi_offset 6, -16
	movq	%rsp, %rbp
	.seh_setframe	%rbp, 0
	.cfi_def_cfa_register 6
	subq	$32, %rsp
	.seh_stackalloc	32
	.seh_endprologue
	movq	%rcx, 16(%rbp)
	movsd	%xmm1, 24(%rbp)
	.loc 7 39 13
	movq	16(%rbp), %rax
	movl	360(%rax), %eax
	testl	%eax, %eax
	je	.L33
	cmpl	$2, %eax
	je	.L34
	.loc 7 54 1
	jmp	.L38
.L33:
	.loc 7 42 27
	movq	16(%rbp), %rax
	movl	$257, %edx
	movq	%rax, %rcx
	call	_ZNSt5arrayIbLy349EEixEy
	.loc 7 42 13
	movzbl	(%rax), %eax
	testb	%al, %al
	je	.L37
	.loc 7 44 37
	movq	16(%rbp), %rax
	movl	$2, 360(%rax)
	.loc 7 45 30
	movl	$0, %edx
	movq	16(%rbp), %rcx
	call	_ZN4Game13startNewLevelEy
	.loc 7 47 13
	jmp	.L37
.L34:
	.loc 7 50 13
	movq	16(%rbp), %rax
	addq	$368, %rax
	.loc 7 50 33
	movq	%rax, %rcx
	call	_ZNKSt19__shared_ptr_accessI10IGameStateLN9__gnu_cxx12_Lock_policyE2ELb0ELb0EEptEv
	movq	%rax, %rcx
	.loc 7 50 55
	movq	(%rcx), %rax
	addq	$16, %rax
	movq	(%rax), %rax
	.loc 7 50 49
	movq	16(%rbp), %rdx
	.loc 7 50 48
	call	*%rax
.LVL1:
	.loc 7 51 13
	movq	16(%rbp), %rax
	addq	$368, %rax
	.loc 7 51 33
	movq	%rax, %rcx
	call	_ZNKSt19__shared_ptr_accessI10IGameStateLN9__gnu_cxx12_Lock_policyE2ELb0ELb0EEptEv
	movq	%rax, %rdx
	.loc 7 51 48
	movq	(%rdx), %rax
	addq	$8, %rax
	movq	(%rax), %rax
	.loc 7 51 42
	movsd	24(%rbp), %xmm0
	movapd	%xmm0, %xmm1
	movq	%rdx, %rcx
	call	*%rax
.LVL2:
	.loc 7 52 13
	jmp	.L35
.L37:
	.loc 7 47 13
	nop
.L35:
.L38:
	.loc 7 54 1
	nop
	addq	$32, %rsp
	popq	%rbp
	.cfi_restore 6
	.cfi_def_cfa 7, 8
	ret
	.cfi_endproc
.LFE5198:
	.seh_endproc
	.align 2
	.globl	_ZN4Game6setKeyEii
	.def	_ZN4Game6setKeyEii;	.scl	2;	.type	32;	.endef
	.seh_proc	_ZN4Game6setKeyEii
_ZN4Game6setKeyEii:
.LFB5199:
	.loc 7 57 1
	.cfi_startproc
	pushq	%rbp
	.seh_pushreg	%rbp
	.cfi_def_cfa_offset 16
	.cfi_offset 6, -16
	movq	%rsp, %rbp
	.seh_setframe	%rbp, 0
	.cfi_def_cfa_register 6
	subq	$32, %rsp
	.seh_stackalloc	32
	.seh_endprologue
	movq	%rcx, 16(%rbp)
	movl	%edx, 24(%rbp)
	movl	%r8d, 32(%rbp)
	.loc 7 58 15
	movl	24(%rbp), %eax
	cltq
	movq	16(%rbp), %rcx
	movq	%rax, %rdx
	call	_ZNSt5arrayIbLy349EEixEy
	movq	%rax, %rdx
	.loc 7 58 19
	cmpl	$0, 32(%rbp)
	setne	%al
	.loc 7 58 17
	movb	%al, (%rdx)
	.loc 7 59 1
	nop
	addq	$32, %rsp
	popq	%rbp
	.cfi_restore 6
	.cfi_def_cfa 7, 8
	ret
	.cfi_endproc
.LFE5199:
	.seh_endproc
	.section	.text$_ZNSt12__shared_ptrIN12RenderEngine13ShaderProgramELN9__gnu_cxx12_Lock_policyE2EED2Ev,"x"
	.linkonce discard
	.align 2
	.globl	_ZNSt12__shared_ptrIN12RenderEngine13ShaderProgramELN9__gnu_cxx12_Lock_policyE2EED2Ev
	.def	_ZNSt12__shared_ptrIN12RenderEngine13ShaderProgramELN9__gnu_cxx12_Lock_policyE2EED2Ev;	.scl	2;	.type	32;	.endef
	.seh_proc	_ZNSt12__shared_ptrIN12RenderEngine13ShaderProgramELN9__gnu_cxx12_Lock_policyE2EED2Ev
_ZNSt12__shared_ptrIN12RenderEngine13ShaderProgramELN9__gnu_cxx12_Lock_policyE2EED2Ev:
.LFB5203:
	.loc 5 1151 7
	.cfi_startproc
	pushq	%rbp
	.seh_pushreg	%rbp
	.cfi_def_cfa_offset 16
	.cfi_offset 6, -16
	movq	%rsp, %rbp
	.seh_setframe	%rbp, 0
	.cfi_def_cfa_register 6
	subq	$32, %rsp
	.seh_stackalloc	32
	.seh_endprologue
	movq	%rcx, 16(%rbp)
.LBB8:
	.loc 5 1151 7
	movq	16(%rbp), %rax
	addq	$8, %rax
	movq	%rax, %rcx
	call	_ZNSt14__shared_countILN9__gnu_cxx12_Lock_policyE2EED1Ev
.LBE8:
	nop
	addq	$32, %rsp
	popq	%rbp
	.cfi_restore 6
	.cfi_def_cfa 7, 8
	ret
	.cfi_endproc
.LFE5203:
	.seh_endproc
	.section	.text$_ZNSt10shared_ptrIN12RenderEngine13ShaderProgramEED1Ev,"x"
	.linkonce discard
	.align 2
	.globl	_ZNSt10shared_ptrIN12RenderEngine13ShaderProgramEED1Ev
	.def	_ZNSt10shared_ptrIN12RenderEngine13ShaderProgramEED1Ev;	.scl	2;	.type	32;	.endef
	.seh_proc	_ZNSt10shared_ptrIN12RenderEngine13ShaderProgramEED1Ev
_ZNSt10shared_ptrIN12RenderEngine13ShaderProgramEED1Ev:
.LFB5206:
	.loc 6 103 11
	.cfi_startproc
	pushq	%rbp
	.seh_pushreg	%rbp
	.cfi_def_cfa_offset 16
	.cfi_offset 6, -16
	movq	%rsp, %rbp
	.seh_setframe	%rbp, 0
	.cfi_def_cfa_register 6
	subq	$32, %rsp
	.seh_stackalloc	32
	.seh_endprologue
	movq	%rcx, 16(%rbp)
.LBB9:
	.loc 6 103 11
	movq	16(%rbp), %rax
	movq	%rax, %rcx
	call	_ZNSt12__shared_ptrIN12RenderEngine13ShaderProgramELN9__gnu_cxx12_Lock_policyE2EED2Ev
.LBE9:
	nop
	addq	$32, %rsp
	popq	%rbp
	.cfi_restore 6
	.cfi_def_cfa 7, 8
	ret
	.cfi_endproc
.LFE5206:
	.seh_endproc
	.section	.text$_ZNSt12__shared_ptrI11StartScreenLN9__gnu_cxx12_Lock_policyE2EED2Ev,"x"
	.linkonce discard
	.align 2
	.globl	_ZNSt12__shared_ptrI11StartScreenLN9__gnu_cxx12_Lock_policyE2EED2Ev
	.def	_ZNSt12__shared_ptrI11StartScreenLN9__gnu_cxx12_Lock_policyE2EED2Ev;	.scl	2;	.type	32;	.endef
	.seh_proc	_ZNSt12__shared_ptrI11StartScreenLN9__gnu_cxx12_Lock_policyE2EED2Ev
_ZNSt12__shared_ptrI11StartScreenLN9__gnu_cxx12_Lock_policyE2EED2Ev:
.LFB5209:
	.loc 5 1151 7
	.cfi_startproc
	pushq	%rbp
	.seh_pushreg	%rbp
	.cfi_def_cfa_offset 16
	.cfi_offset 6, -16
	movq	%rsp, %rbp
	.seh_setframe	%rbp, 0
	.cfi_def_cfa_register 6
	subq	$32, %rsp
	.seh_stackalloc	32
	.seh_endprologue
	movq	%rcx, 16(%rbp)
.LBB10:
	.loc 5 1151 7
	movq	16(%rbp), %rax
	addq	$8, %rax
	movq	%rax, %rcx
	call	_ZNSt14__shared_countILN9__gnu_cxx12_Lock_policyE2EED1Ev
.LBE10:
	nop
	addq	$32, %rsp
	popq	%rbp
	.cfi_restore 6
	.cfi_def_cfa 7, 8
	ret
	.cfi_endproc
.LFE5209:
	.seh_endproc
	.section	.text$_ZNSt10shared_ptrI11StartScreenED1Ev,"x"
	.linkonce discard
	.align 2
	.globl	_ZNSt10shared_ptrI11StartScreenED1Ev
	.def	_ZNSt10shared_ptrI11StartScreenED1Ev;	.scl	2;	.type	32;	.endef
	.seh_proc	_ZNSt10shared_ptrI11StartScreenED1Ev
_ZNSt10shared_ptrI11StartScreenED1Ev:
.LFB5212:
	.loc 6 103 11
	.cfi_startproc
	pushq	%rbp
	.seh_pushreg	%rbp
	.cfi_def_cfa_offset 16
	.cfi_offset 6, -16
	movq	%rsp, %rbp
	.seh_setframe	%rbp, 0
	.cfi_def_cfa_register 6
	subq	$32, %rsp
	.seh_stackalloc	32
	.seh_endprologue
	movq	%rcx, 16(%rbp)
.LBB11:
	.loc 6 103 11
	movq	16(%rbp), %rax
	movq	%rax, %rcx
	call	_ZNSt12__shared_ptrI11StartScreenLN9__gnu_cxx12_Lock_policyE2EED2Ev
.LBE11:
	nop
	addq	$32, %rsp
	popq	%rbp
	.cfi_restore 6
	.cfi_def_cfa 7, 8
	ret
	.cfi_endproc
.LFE5212:
	.seh_endproc
	.section .rdata,"dr"
.LC0:
	.ascii "res/resources.json\0"
.LC1:
	.ascii "spriteShader\0"
.LC2:
	.ascii "Can't find shader program: \0"
.LC6:
	.ascii "tex\0"
.LC7:
	.ascii "projectionMat\0"
	.text
	.align 2
	.globl	_ZN4Game4initEv
	.def	_ZN4Game4initEv;	.scl	2;	.type	32;	.endef
	.seh_proc	_ZN4Game4initEv
_ZN4Game4initEv:
.LFB5200:
	.loc 7 62 1
	.cfi_startproc
	pushq	%rbp
	.seh_pushreg	%rbp
	.cfi_def_cfa_offset 16
	.cfi_offset 6, -16
	pushq	%rbx
	.seh_pushreg	%rbx
	.cfi_def_cfa_offset 24
	.cfi_offset 3, -24
	subq	$360, %rsp
	.seh_stackalloc	360
	.cfi_def_cfa_offset 384
	leaq	128(%rsp), %rbp
	.seh_setframe	%rbp, 128
	.cfi_def_cfa 6, 256
	.seh_endprologue
	movq	%rcx, 256(%rbp)
	.loc 7 63 39
	leaq	63(%rbp), %rax
	movq	%rax, %rcx
	call	_ZNSaIcEC1Ev
	leaq	63(%rbp), %rdx
	leaq	16(%rbp), %rax
	movq	%rdx, %r8
	leaq	.LC0(%rip), %rdx
	movq	%rax, %rcx
.LEHB2:
	call	_ZNSt7__cxx1112basic_stringIcSt11char_traitsIcESaIcEEC1EPKcRKS3_
.LEHE2:
	.loc 7 63 39 is_stmt 0 discriminator 2
	leaq	16(%rbp), %rax
	movq	%rax, %rcx
.LEHB3:
	call	_ZN15ResourceManager17loadJSONResourcesERKNSt7__cxx1112basic_stringIcSt11char_traitsIcESaIcEEE
.LEHE3:
	.loc 7 63 39 discriminator 4
	leaq	16(%rbp), %rax
	movq	%rax, %rcx
	call	_ZNSt7__cxx1112basic_stringIcSt11char_traitsIcESaIcEED1Ev
	leaq	63(%rbp), %rax
	movq	%rax, %rcx
	call	_ZNSaIcED1Ev
	.loc 7 65 81 is_stmt 1 discriminator 4
	leaq	111(%rbp), %rax
	movq	%rax, %rcx
	call	_ZNSaIcEC1Ev
	leaq	111(%rbp), %rdx
	leaq	64(%rbp), %rax
	movq	%rdx, %r8
	leaq	.LC1(%rip), %rdx
	movq	%rax, %rcx
.LEHB4:
	call	_ZNSt7__cxx1112basic_stringIcSt11char_traitsIcESaIcEEC1EPKcRKS3_
.LEHE4:
	.loc 7 65 81 is_stmt 0 discriminator 1
	movq	%rbp, %rax
	leaq	64(%rbp), %rdx
	movq	%rax, %rcx
.LEHB5:
	call	_ZN15ResourceManager16getShaderProgramERKNSt7__cxx1112basic_stringIcSt11char_traitsIcESaIcEEE
.LEHE5:
	leaq	64(%rbp), %rax
	movq	%rax, %rcx
	call	_ZNSt7__cxx1112basic_stringIcSt11char_traitsIcESaIcEED1Ev
	leaq	111(%rbp), %rax
	movq	%rax, %rcx
	call	_ZNSaIcED1Ev
	.loc 7 66 10 is_stmt 1
	movq	%rbp, %rax
	movq	%rax, %rcx
	call	_ZNKSt12__shared_ptrIN12RenderEngine13ShaderProgramELN9__gnu_cxx12_Lock_policyE2EEcvbEv
	.loc 7 66 9
	xorl	$1, %eax
	.loc 7 66 5
	testb	%al, %al
	je	.L45
	.loc 7 68 55
	leaq	.LC2(%rip), %rdx
	movq	.refptr._ZSt4cerr(%rip), %rcx
.LEHB6:
	call	_ZStlsISt11char_traitsIcEERSt13basic_ostreamIcT_ES5_PKc
	leaq	.LC1(%rip), %rdx
	movq	%rax, %rcx
	call	_ZStlsISt11char_traitsIcEERSt13basic_ostreamIcT_ES5_PKc
	.loc 7 68 78 discriminator 1
	movq	.refptr._ZSt4endlIcSt11char_traitsIcEERSt13basic_ostreamIT_T0_ES6_(%rip), %rdx
	movq	%rax, %rcx
	call	_ZNSolsEPFRSoS_E
	.loc 7 69 16
	movl	$0, %ebx
	jmp	.L46
.L45:
	.loc 7 72 56
	call	_ZN15ResourceManager14getStartScreenB5cxx11Ev
	movq	%rax, %rdx
	leaq	112(%rbp), %rax
	movq	%rax, %rcx
	call	_ZSt11make_sharedI11StartScreenJRKSt6vectorINSt7__cxx1112basic_stringIcSt11char_traitsIcESaIcEEESaIS7_EEEESt10shared_ptrIT_EDpOT0_
	.loc 7 72 90 discriminator 1
	movq	256(%rbp), %rax
	leaq	368(%rax), %rcx
	leaq	112(%rbp), %rax
	movq	%rax, %rdx
	call	_ZNSt10shared_ptrI10IGameStateEaSI11StartScreenEENSt9enable_ifIXsrSt13is_assignableIRSt12__shared_ptrIS0_LN9__gnu_cxx12_Lock_policyE2EES_IT_EE5valueERS1_E4typeEOSC_
	.loc 7 72 56 discriminator 1
	leaq	112(%rbp), %rax
	movq	%rax, %rcx
	call	_ZNSt10shared_ptrI11StartScreenED1Ev
	.loc 7 74 39 discriminator 1
	movq	256(%rbp), %rax
	addq	$368, %rax
	.loc 7 74 58 discriminator 1
	movq	%rax, %rcx
	call	_ZNKSt19__shared_ptr_accessI10IGameStateLN9__gnu_cxx12_Lock_policyE2ELb0ELb0EEptEv
	movq	%rax, %rdx
	.loc 7 74 74 discriminator 1
	movq	(%rdx), %rax
	addq	$40, %rax
	movq	(%rax), %rax
	.loc 7 74 73 discriminator 1
	movq	%rdx, %rcx
	call	*%rax
.LVL3:
	.loc 7 74 22 discriminator 1
	movl	%eax, %edx
	.loc 7 74 20 discriminator 1
	movq	256(%rbp), %rax
	movl	%edx, 352(%rax)
	.loc 7 75 39 discriminator 1
	movq	256(%rbp), %rax
	addq	$368, %rax
	.loc 7 75 58 discriminator 1
	movq	%rax, %rcx
	call	_ZNKSt19__shared_ptr_accessI10IGameStateLN9__gnu_cxx12_Lock_policyE2ELb0ELb0EEptEv
	movq	%rax, %rdx
	.loc 7 75 75 discriminator 1
	movq	(%rdx), %rax
	addq	$48, %rax
	movq	(%rax), %rax
	.loc 7 75 74 discriminator 1
	movq	%rdx, %rcx
	call	*%rax
.LVL4:
	.loc 7 75 22 discriminator 1
	movl	%eax, %edx
	.loc 7 75 20 discriminator 1
	movq	256(%rbp), %rax
	movl	%edx, 356(%rax)
	.loc 7 77 123 discriminator 1
	movq	256(%rbp), %rax
	movl	356(%rax), %eax
	.loc 7 77 140 discriminator 1
	cvtsi2ss	%eax, %xmm0
	.loc 7 77 82 discriminator 1
	movq	256(%rbp), %rax
	movl	352(%rax), %eax
	.loc 7 77 140 discriminator 1
	cvtsi2ss	%eax, %xmm2
	leaq	-64(%rbp), %rax
	movss	.LC3(%rip), %xmm1
	movss	%xmm1, 48(%rsp)
	movss	.LC4(%rip), %xmm1
	movss	%xmm1, 40(%rsp)
	movss	%xmm0, 32(%rsp)
	pxor	%xmm3, %xmm3
	pxor	%xmm1, %xmm1
	movq	%rax, %rcx
	call	_ZN3glm5orthoIfEENS_3matILi4ELi4ET_LNS_9qualifierE0EEES2_S2_S2_S2_S2_S2_
	.loc 7 79 30
	movq	%rbp, %rax
	movq	%rax, %rcx
	call	_ZNKSt19__shared_ptr_accessIN12RenderEngine13ShaderProgramELN9__gnu_cxx12_Lock_policyE2ELb0ELb0EEptEv
	movq	%rax, %rcx
	call	_ZNK12RenderEngine13ShaderProgram3useEv
.LEHE6:
	.loc 7 80 33
	movq	%rbp, %rax
	movq	%rax, %rcx
	call	_ZNKSt19__shared_ptr_accessIN12RenderEngine13ShaderProgramELN9__gnu_cxx12_Lock_policyE2ELb0ELb0EEptEv
	movq	%rax, %rbx
	leaq	175(%rbp), %rax
	movq	%rax, %rcx
	call	_ZNSaIcEC1Ev
	leaq	175(%rbp), %rdx
	leaq	128(%rbp), %rax
	movq	%rdx, %r8
	leaq	.LC6(%rip), %rdx
	movq	%rax, %rcx
.LEHB7:
	call	_ZNSt7__cxx1112basic_stringIcSt11char_traitsIcESaIcEEC1EPKcRKS3_
.LEHE7:
	.loc 7 80 33 is_stmt 0 discriminator 2
	leaq	128(%rbp), %rax
	movl	$0, %r8d
	movq	%rax, %rdx
	movq	%rbx, %rcx
.LEHB8:
	call	_ZN12RenderEngine13ShaderProgram6setIntERKNSt7__cxx1112basic_stringIcSt11char_traitsIcESaIcEEEi
.LEHE8:
	.loc 7 80 33 discriminator 4
	leaq	128(%rbp), %rax
	movq	%rax, %rcx
	call	_ZNSt7__cxx1112basic_stringIcSt11char_traitsIcESaIcEED1Ev
	leaq	175(%rbp), %rax
	movq	%rax, %rcx
	call	_ZNSaIcED1Ev
	.loc 7 81 37 is_stmt 1 discriminator 4
	movq	%rbp, %rax
	movq	%rax, %rcx
	call	_ZNKSt19__shared_ptr_accessIN12RenderEngine13ShaderProgramELN9__gnu_cxx12_Lock_policyE2ELb0ELb0EEptEv
	movq	%rax, %rbx
	leaq	223(%rbp), %rax
	movq	%rax, %rcx
	call	_ZNSaIcEC1Ev
	leaq	223(%rbp), %rdx
	leaq	176(%rbp), %rax
	movq	%rdx, %r8
	leaq	.LC7(%rip), %rdx
	movq	%rax, %rcx
.LEHB9:
	call	_ZNSt7__cxx1112basic_stringIcSt11char_traitsIcESaIcEEC1EPKcRKS3_
.LEHE9:
	.loc 7 81 37 is_stmt 0 discriminator 2
	leaq	-64(%rbp), %rdx
	leaq	176(%rbp), %rax
	movq	%rdx, %r8
	movq	%rax, %rdx
	movq	%rbx, %rcx
.LEHB10:
	call	_ZN12RenderEngine13ShaderProgram10setMatrix4ERKNSt7__cxx1112basic_stringIcSt11char_traitsIcESaIcEEERKN3glm3matILi4ELi4EfLNS9_9qualifierE0EEE
.LEHE10:
	.loc 7 81 37 discriminator 4
	leaq	176(%rbp), %rax
	movq	%rax, %rcx
	call	_ZNSt7__cxx1112basic_stringIcSt11char_traitsIcESaIcEED1Ev
	leaq	223(%rbp), %rax
	movq	%rax, %rcx
	call	_ZNSaIcED1Ev
	.loc 7 83 12 is_stmt 1 discriminator 4
	movl	$1, %ebx
.L46:
	.loc 7 65 81
	movq	%rbp, %rax
	movq	%rax, %rcx
	call	_ZNSt10shared_ptrIN12RenderEngine13ShaderProgramEED1Ev
	movl	%ebx, %eax
	jmp	.L66
.L58:
	movq	%rax, %rbx
	.loc 7 63 39
	leaq	16(%rbp), %rax
	movq	%rax, %rcx
	call	_ZNSt7__cxx1112basic_stringIcSt11char_traitsIcESaIcEED1Ev
	jmp	.L49
.L57:
	movq	%rax, %rbx
.L49:
	.loc 7 63 39 is_stmt 0 discriminator 1
	leaq	63(%rbp), %rax
	movq	%rax, %rcx
	call	_ZNSaIcED1Ev
	movq	%rbx, %rax
	movq	%rax, %rcx
.LEHB11:
	call	_Unwind_Resume
.L60:
	movq	%rax, %rbx
	leaq	64(%rbp), %rax
	movq	%rax, %rcx
	call	_ZNSt7__cxx1112basic_stringIcSt11char_traitsIcESaIcEED1Ev
	jmp	.L51
.L59:
	movq	%rax, %rbx
.L51:
	leaq	111(%rbp), %rax
	movq	%rax, %rcx
	call	_ZNSaIcED1Ev
	movq	%rbx, %rax
	movq	%rax, %rcx
	call	_Unwind_Resume
.L63:
	movq	%rax, %rbx
	.loc 7 80 33 is_stmt 1
	leaq	128(%rbp), %rax
	movq	%rax, %rcx
	call	_ZNSt7__cxx1112basic_stringIcSt11char_traitsIcESaIcEED1Ev
	jmp	.L53
.L62:
	movq	%rax, %rbx
.L53:
	.loc 7 80 33 is_stmt 0 discriminator 1
	leaq	175(%rbp), %rax
	movq	%rax, %rcx
	call	_ZNSaIcED1Ev
	jmp	.L54
.L65:
	movq	%rax, %rbx
	.loc 7 81 37 is_stmt 1
	leaq	176(%rbp), %rax
	movq	%rax, %rcx
	call	_ZNSt7__cxx1112basic_stringIcSt11char_traitsIcESaIcEED1Ev
	jmp	.L56
.L64:
	movq	%rax, %rbx
.L56:
	.loc 7 81 37 is_stmt 0 discriminator 1
	leaq	223(%rbp), %rax
	movq	%rax, %rcx
	call	_ZNSaIcED1Ev
	jmp	.L54
.L61:
	movq	%rax, %rbx
.L54:
	.loc 7 65 81 is_stmt 1
	movq	%rbp, %rax
	movq	%rax, %rcx
	call	_ZNSt10shared_ptrIN12RenderEngine13ShaderProgramEED1Ev
	movq	%rbx, %rax
	movq	%rax, %rcx
	call	_Unwind_Resume
.LEHE11:
.L66:
	.loc 7 84 1
	addq	$360, %rsp
	popq	%rbx
	.cfi_restore 3
	popq	%rbp
	.cfi_restore 6
	.cfi_def_cfa 7, -344
	ret
	.cfi_endproc
.LFE5200:
	.seh_handler	__gxx_personality_seh0, @unwind, @except
	.seh_handlerdata
.LLSDA5200:
	.byte	0xff
	.byte	0xff
	.byte	0x1
	.uleb128 .LLSDACSE5200-.LLSDACSB5200
.LLSDACSB5200:
	.uleb128 .LEHB2-.LFB5200
	.uleb128 .LEHE2-.LEHB2
	.uleb128 .L57-.LFB5200
	.uleb128 0
	.uleb128 .LEHB3-.LFB5200
	.uleb128 .LEHE3-.LEHB3
	.uleb128 .L58-.LFB5200
	.uleb128 0
	.uleb128 .LEHB4-.LFB5200
	.uleb128 .LEHE4-.LEHB4
	.uleb128 .L59-.LFB5200
	.uleb128 0
	.uleb128 .LEHB5-.LFB5200
	.uleb128 .LEHE5-.LEHB5
	.uleb128 .L60-.LFB5200
	.uleb128 0
	.uleb128 .LEHB6-.LFB5200
	.uleb128 .LEHE6-.LEHB6
	.uleb128 .L61-.LFB5200
	.uleb128 0
	.uleb128 .LEHB7-.LFB5200
	.uleb128 .LEHE7-.LEHB7
	.uleb128 .L62-.LFB5200
	.uleb128 0
	.uleb128 .LEHB8-.LFB5200
	.uleb128 .LEHE8-.LEHB8
	.uleb128 .L63-.LFB5200
	.uleb128 0
	.uleb128 .LEHB9-.LFB5200
	.uleb128 .LEHE9-.LEHB9
	.uleb128 .L64-.LFB5200
	.uleb128 0
	.uleb128 .LEHB10-.LFB5200
	.uleb128 .LEHE10-.LEHB10
	.uleb128 .L65-.LFB5200
	.uleb128 0
	.uleb128 .LEHB11-.LFB5200
	.uleb128 .LEHE11-.LEHB11
	.uleb128 0
	.uleb128 0
.LLSDACSE5200:
	.text
	.seh_endproc
	.align 2
	.globl	_ZNK4Game15getCurrentWidthEv
	.def	_ZNK4Game15getCurrentWidthEv;	.scl	2;	.type	32;	.endef
	.seh_proc	_ZNK4Game15getCurrentWidthEv
_ZNK4Game15getCurrentWidthEv:
.LFB5213:
	.loc 7 87 1
	.cfi_startproc
	pushq	%rbp
	.seh_pushreg	%rbp
	.cfi_def_cfa_offset 16
	.cfi_offset 6, -16
	movq	%rsp, %rbp
	.seh_setframe	%rbp, 0
	.cfi_def_cfa_register 6
	subq	$32, %rsp
	.seh_stackalloc	32
	.seh_endprologue
	movq	%rcx, 16(%rbp)
	.loc 7 88 11
	movq	16(%rbp), %rax
	addq	$368, %rax
	.loc 7 88 31
	movq	%rax, %rcx
	call	_ZNKSt19__shared_ptr_accessI10IGameStateLN9__gnu_cxx12_Lock_policyE2ELb0ELb0EEptEv
	movq	%rax, %rdx
	.loc 7 88 48
	movq	(%rdx), %rax
	addq	$40, %rax
	movq	(%rax), %rax
	.loc 7 88 47
	movq	%rdx, %rcx
	call	*%rax
.LVL5:
	.loc 7 89 1
	addq	$32, %rsp
	popq	%rbp
	.cfi_restore 6
	.cfi_def_cfa 7, 8
	ret
	.cfi_endproc
.LFE5213:
	.seh_endproc
	.align 2
	.globl	_ZNK4Game16getCurrentHeightEv
	.def	_ZNK4Game16getCurrentHeightEv;	.scl	2;	.type	32;	.endef
	.seh_proc	_ZNK4Game16getCurrentHeightEv
_ZNK4Game16getCurrentHeightEv:
.LFB5214:
	.loc 7 92 1
	.cfi_startproc
	pushq	%rbp
	.seh_pushreg	%rbp
	.cfi_def_cfa_offset 16
	.cfi_offset 6, -16
	movq	%rsp, %rbp
	.seh_setframe	%rbp, 0
	.cfi_def_cfa_register 6
	subq	$32, %rsp
	.seh_stackalloc	32
	.seh_endprologue
	movq	%rcx, 16(%rbp)
	.loc 7 93 11
	movq	16(%rbp), %rax
	addq	$368, %rax
	.loc 7 93 31
	movq	%rax, %rcx
	call	_ZNKSt19__shared_ptr_accessI10IGameStateLN9__gnu_cxx12_Lock_policyE2ELb0ELb0EEptEv
	movq	%rax, %rdx
	.loc 7 93 49
	movq	(%rdx), %rax
	addq	$48, %rax
	movq	(%rax), %rax
	.loc 7 93 48
	movq	%rdx, %rcx
	call	*%rax
.LVL6:
	.loc 7 94 1
	addq	$32, %rsp
	popq	%rbp
	.cfi_restore 6
	.cfi_def_cfa 7, 8
	ret
	.cfi_endproc
.LFE5214:
	.seh_endproc
	.section	.text$_ZNSt12__shared_ptrI5LevelLN9__gnu_cxx12_Lock_policyE2EED2Ev,"x"
	.linkonce discard
	.align 2
	.globl	_ZNSt12__shared_ptrI5LevelLN9__gnu_cxx12_Lock_policyE2EED2Ev
	.def	_ZNSt12__shared_ptrI5LevelLN9__gnu_cxx12_Lock_policyE2EED2Ev;	.scl	2;	.type	32;	.endef
	.seh_proc	_ZNSt12__shared_ptrI5LevelLN9__gnu_cxx12_Lock_policyE2EED2Ev
_ZNSt12__shared_ptrI5LevelLN9__gnu_cxx12_Lock_policyE2EED2Ev:
.LFB5218:
	.loc 5 1151 7
	.cfi_startproc
	pushq	%rbp
	.seh_pushreg	%rbp
	.cfi_def_cfa_offset 16
	.cfi_offset 6, -16
	movq	%rsp, %rbp
	.seh_setframe	%rbp, 0
	.cfi_def_cfa_register 6
	subq	$32, %rsp
	.seh_stackalloc	32
	.seh_endprologue
	movq	%rcx, 16(%rbp)
.LBB12:
	.loc 5 1151 7
	movq	16(%rbp), %rax
	addq	$8, %rax
	movq	%rax, %rcx
	call	_ZNSt14__shared_countILN9__gnu_cxx12_Lock_policyE2EED1Ev
.LBE12:
	nop
	addq	$32, %rsp
	popq	%rbp
	.cfi_restore 6
	.cfi_def_cfa 7, 8
	ret
	.cfi_endproc
.LFE5218:
	.seh_endproc
	.section	.text$_ZNSt10shared_ptrI5LevelED1Ev,"x"
	.linkonce discard
	.align 2
	.globl	_ZNSt10shared_ptrI5LevelED1Ev
	.def	_ZNSt10shared_ptrI5LevelED1Ev;	.scl	2;	.type	32;	.endef
	.seh_proc	_ZNSt10shared_ptrI5LevelED1Ev
_ZNSt10shared_ptrI5LevelED1Ev:
.LFB5221:
	.loc 6 103 11
	.cfi_startproc
	pushq	%rbp
	.seh_pushreg	%rbp
	.cfi_def_cfa_offset 16
	.cfi_offset 6, -16
	movq	%rsp, %rbp
	.seh_setframe	%rbp, 0
	.cfi_def_cfa_register 6
	subq	$32, %rsp
	.seh_stackalloc	32
	.seh_endprologue
	movq	%rcx, 16(%rbp)
.LBB13:
	.loc 6 103 11
	movq	16(%rbp), %rax
	movq	%rax, %rcx
	call	_ZNSt12__shared_ptrI5LevelLN9__gnu_cxx12_Lock_policyE2EED2Ev
.LBE13:
	nop
	addq	$32, %rsp
	popq	%rbp
	.cfi_restore 6
	.cfi_def_cfa 7, 8
	ret
	.cfi_endproc
.LFE5221:
	.seh_endproc
	.section	.text$_ZNSt12__shared_ptrI5LevelLN9__gnu_cxx12_Lock_policyE2EEC2ERKS3_,"x"
	.linkonce discard
	.align 2
	.globl	_ZNSt12__shared_ptrI5LevelLN9__gnu_cxx12_Lock_policyE2EEC2ERKS3_
	.def	_ZNSt12__shared_ptrI5LevelLN9__gnu_cxx12_Lock_policyE2EEC2ERKS3_;	.scl	2;	.type	32;	.endef
	.seh_proc	_ZNSt12__shared_ptrI5LevelLN9__gnu_cxx12_Lock_policyE2EEC2ERKS3_
_ZNSt12__shared_ptrI5LevelLN9__gnu_cxx12_Lock_policyE2EEC2ERKS3_:
.LFB5224:
	.loc 5 1149 7
	.cfi_startproc
	pushq	%rbp
	.seh_pushreg	%rbp
	.cfi_def_cfa_offset 16
	.cfi_offset 6, -16
	movq	%rsp, %rbp
	.seh_setframe	%rbp, 0
	.cfi_def_cfa_register 6
	subq	$32, %rsp
	.seh_stackalloc	32
	.seh_endprologue
	movq	%rcx, 16(%rbp)
	movq	%rdx, 24(%rbp)
.LBB14:
	.loc 5 1149 7
	movq	24(%rbp), %rax
	movq	(%rax), %rdx
	movq	16(%rbp), %rax
	movq	%rdx, (%rax)
	movq	16(%rbp), %rax
	addq	$8, %rax
	movq	24(%rbp), %rdx
	addq	$8, %rdx
	movq	%rax, %rcx
	call	_ZNSt14__shared_countILN9__gnu_cxx12_Lock_policyE2EEC1ERKS2_
.LBE14:
	nop
	addq	$32, %rsp
	popq	%rbp
	.cfi_restore 6
	.cfi_def_cfa 7, 8
	ret
	.cfi_endproc
.LFE5224:
	.seh_endproc
	.section	.text$_ZNSt10shared_ptrI5LevelEC1ERKS1_,"x"
	.linkonce discard
	.align 2
	.globl	_ZNSt10shared_ptrI5LevelEC1ERKS1_
	.def	_ZNSt10shared_ptrI5LevelEC1ERKS1_;	.scl	2;	.type	32;	.endef
	.seh_proc	_ZNSt10shared_ptrI5LevelEC1ERKS1_
_ZNSt10shared_ptrI5LevelEC1ERKS1_:
.LFB5227:
	.loc 6 129 7
	.cfi_startproc
	pushq	%rbp
	.seh_pushreg	%rbp
	.cfi_def_cfa_offset 16
	.cfi_offset 6, -16
	movq	%rsp, %rbp
	.seh_setframe	%rbp, 0
	.cfi_def_cfa_register 6
	subq	$32, %rsp
	.seh_stackalloc	32
	.seh_endprologue
	movq	%rcx, 16(%rbp)
	movq	%rdx, 24(%rbp)
.LBB15:
	.loc 6 129 7
	movq	16(%rbp), %rax
	movq	24(%rbp), %rdx
	movq	%rax, %rcx
	call	_ZNSt12__shared_ptrI5LevelLN9__gnu_cxx12_Lock_policyE2EEC2ERKS3_
.LBE15:
	nop
	addq	$32, %rsp
	popq	%rbp
	.cfi_restore 6
	.cfi_def_cfa 7, 8
	ret
	.cfi_endproc
.LFE5227:
	.seh_endproc
	.text
	.align 2
	.globl	_ZN4Game13startNewLevelEy
	.def	_ZN4Game13startNewLevelEy;	.scl	2;	.type	32;	.endef
	.seh_proc	_ZN4Game13startNewLevelEy
_ZN4Game13startNewLevelEy:
.LFB5215:
	.loc 7 97 1
	.cfi_startproc
	pushq	%rbp
	.seh_pushreg	%rbp
	.cfi_def_cfa_offset 16
	.cfi_offset 6, -16
	pushq	%rbx
	.seh_pushreg	%rbx
	.cfi_def_cfa_offset 24
	.cfi_offset 3, -24
	subq	$72, %rsp
	.seh_stackalloc	72
	.cfi_def_cfa_offset 96
	leaq	128(%rsp), %rbp
	.seh_setframe	%rbp, 128
	.cfi_def_cfa 6, -32
	.seh_endprologue
	movq	%rcx, -32(%rbp)
	movq	%rdx, -24(%rbp)
	.loc 7 98 70
	call	_ZN15ResourceManager9getLevelsB5cxx11Ev
	movq	%rax, %rcx
	.loc 7 98 77
	movq	-24(%rbp), %rax
	movq	%rax, %rdx
	call	_ZNKSt6vectorIS_INSt7__cxx1112basic_stringIcSt11char_traitsIcESaIcEEESaIS5_EESaIS7_EEixEy
	movq	%rax, %rdx
	.loc 7 98 78
	leaq	-96(%rbp), %rax
	movq	%rax, %rcx
.LEHB12:
	call	_ZSt11make_sharedI5LevelJRKSt6vectorINSt7__cxx1112basic_stringIcSt11char_traitsIcESaIcEEESaIS7_EEEESt10shared_ptrIT_EDpOT0_
.LEHE12:
	.loc 7 100 27
	movq	-32(%rbp), %rax
	leaq	368(%rax), %rcx
	leaq	-96(%rbp), %rax
	movq	%rax, %rdx
	call	_ZNSt10shared_ptrI10IGameStateEaSI5LevelEENSt9enable_ifIXsrSt13is_assignableIRSt12__shared_ptrIS0_LN9__gnu_cxx12_Lock_policyE2EERKS_IT_EE5valueERS1_E4typeESE_
	.loc 7 102 44
	leaq	-96(%rbp), %rdx
	leaq	-80(%rbp), %rax
	movq	%rax, %rcx
	call	_ZNSt10shared_ptrI5LevelEC1ERKS1_
	leaq	-80(%rbp), %rax
	movq	%rax, %rcx
.LEHB13:
	call	_ZN7Physics13PhysicsEngine15setCurrentLevelESt10shared_ptrI5LevelE
.LEHE13:
	.loc 7 102 44 is_stmt 0 discriminator 2
	leaq	-80(%rbp), %rax
	movq	%rax, %rcx
	call	_ZNSt10shared_ptrI5LevelED1Ev
	.loc 7 98 78 is_stmt 1 discriminator 2
	leaq	-96(%rbp), %rax
	movq	%rax, %rcx
	call	_ZNSt10shared_ptrI5LevelED1Ev
	.loc 7 103 1 discriminator 2
	jmp	.L78
.L77:
	movq	%rax, %rbx
	.loc 7 102 44
	leaq	-80(%rbp), %rax
	movq	%rax, %rcx
	call	_ZNSt10shared_ptrI5LevelED1Ev
	.loc 7 98 78
	leaq	-96(%rbp), %rax
	movq	%rax, %rcx
	call	_ZNSt10shared_ptrI5LevelED1Ev
	movq	%rbx, %rax
	movq	%rax, %rcx
.LEHB14:
	call	_Unwind_Resume
	nop
.LEHE14:
.L78:
	.loc 7 103 1
	addq	$72, %rsp
	popq	%rbx
	.cfi_restore 3
	popq	%rbp
	.cfi_restore 6
	.cfi_def_cfa 7, -56
	ret
	.cfi_endproc
.LFE5215:
	.seh_handler	__gxx_personality_seh0, @unwind, @except
	.seh_handlerdata
.LLSDA5215:
	.byte	0xff
	.byte	0xff
	.byte	0x1
	.uleb128 .LLSDACSE5215-.LLSDACSB5215
.LLSDACSB5215:
	.uleb128 .LEHB12-.LFB5215
	.uleb128 .LEHE12-.LEHB12
	.uleb128 0
	.uleb128 0
	.uleb128 .LEHB13-.LFB5215
	.uleb128 .LEHE13-.LEHB13
	.uleb128 .L77-.LFB5215
	.uleb128 0
	.uleb128 .LEHB14-.LFB5215
	.uleb128 .LEHE14-.LEHB14
	.uleb128 0
	.uleb128 0
.LLSDACSE5215:
	.text
	.seh_endproc
	.section	.text$_ZNSt10shared_ptrI10IGameStateEC1Ev,"x"
	.linkonce discard
	.align 2
	.globl	_ZNSt10shared_ptrI10IGameStateEC1Ev
	.def	_ZNSt10shared_ptrI10IGameStateEC1Ev;	.scl	2;	.type	32;	.endef
	.seh_proc	_ZNSt10shared_ptrI10IGameStateEC1Ev
_ZNSt10shared_ptrI10IGameStateEC1Ev:
.LFB5501:
	.loc 6 127 17
	.cfi_startproc
	pushq	%rbp
	.seh_pushreg	%rbp
	.cfi_def_cfa_offset 16
	.cfi_offset 6, -16
	movq	%rsp, %rbp
	.seh_setframe	%rbp, 0
	.cfi_def_cfa_register 6
	subq	$32, %rsp
	.seh_stackalloc	32
	.seh_endprologue
	movq	%rcx, 16(%rbp)
.LBB16:
	.loc 6 127 59
	movq	16(%rbp), %rax
	movq	%rax, %rcx
	call	_ZNSt12__shared_ptrI10IGameStateLN9__gnu_cxx12_Lock_policyE2EEC2Ev
.LBE16:
	.loc 6 127 63
	nop
	addq	$32, %rsp
	popq	%rbp
	.cfi_restore 6
	.cfi_def_cfa 7, 8
	ret
	.cfi_endproc
.LFE5501:
	.seh_endproc
	.section	.text$_ZNSt14__shared_countILN9__gnu_cxx12_Lock_policyE2EED1Ev,"x"
	.linkonce discard
	.align 2
	.globl	_ZNSt14__shared_countILN9__gnu_cxx12_Lock_policyE2EED1Ev
	.def	_ZNSt14__shared_countILN9__gnu_cxx12_Lock_policyE2EED1Ev;	.scl	2;	.type	32;	.endef
	.seh_proc	_ZNSt14__shared_countILN9__gnu_cxx12_Lock_policyE2EED1Ev
_ZNSt14__shared_countILN9__gnu_cxx12_Lock_policyE2EED1Ev:
.LFB5504:
	.loc 5 709 7
	.cfi_startproc
	pushq	%rbp
	.seh_pushreg	%rbp
	.cfi_def_cfa_offset 16
	.cfi_offset 6, -16
	movq	%rsp, %rbp
	.seh_setframe	%rbp, 0
	.cfi_def_cfa_register 6
	subq	$32, %rsp
	.seh_stackalloc	32
	.seh_endprologue
	movq	%rcx, 16(%rbp)
.LBB17:
	.loc 5 711 6
	movq	16(%rbp), %rax
	movq	(%rax), %rax
	.loc 5 711 2
	testq	%rax, %rax
	je	.L82
	.loc 5 712 4
	movq	16(%rbp), %rax
	movq	(%rax), %rax
	movq	%rax, %rcx
	call	_ZNSt16_Sp_counted_baseILN9__gnu_cxx12_Lock_policyE2EE10_M_releaseEv
.L82:
.LBE17:
	.loc 5 713 7
	nop
	addq	$32, %rsp
	popq	%rbp
	.cfi_restore 6
	.cfi_def_cfa 7, 8
	ret
	.cfi_endproc
.LFE5504:
	.seh_endproc
	.section	.text$_ZNSt5arrayIbLy349EE4fillERKb,"x"
	.linkonce discard
	.align 2
	.globl	_ZNSt5arrayIbLy349EE4fillERKb
	.def	_ZNSt5arrayIbLy349EE4fillERKb;	.scl	2;	.type	32;	.endef
	.seh_proc	_ZNSt5arrayIbLy349EE4fillERKb
_ZNSt5arrayIbLy349EE4fillERKb:
.LFB5505:
	.file 8 "C:/Program Files/CodeBlocks/MinGW/lib/gcc/x86_64-w64-mingw32/8.1.0/include/c++/array"
	.loc 8 116 7
	.cfi_startproc
	pushq	%rbp
	.seh_pushreg	%rbp
	.cfi_def_cfa_offset 16
	.cfi_offset 6, -16
	pushq	%rbx
	.seh_pushreg	%rbx
	.cfi_def_cfa_offset 24
	.cfi_offset 3, -24
	subq	$40, %rsp
	.seh_stackalloc	40
	.cfi_def_cfa_offset 64
	leaq	128(%rsp), %rbp
	.seh_setframe	%rbp, 128
	.cfi_def_cfa 6, -64
	.seh_endprologue
	movq	%rcx, -64(%rbp)
	movq	%rdx, -56(%rbp)
	.loc 8 117 20
	movq	-64(%rbp), %rcx
	call	_ZNKSt5arrayIbLy349EE4sizeEv
	movq	%rax, %rbx
	movq	-64(%rbp), %rcx
	call	_ZNSt5arrayIbLy349EE5beginEv
	movq	%rax, %rcx
	movq	-56(%rbp), %rax
	movq	%rax, %r8
	movq	%rbx, %rdx
	call	_ZSt6fill_nIPbybET_S1_T0_RKT1_
	.loc 8 117 44
	nop
	addq	$40, %rsp
	popq	%rbx
	.cfi_restore 3
	popq	%rbp
	.cfi_restore 6
	.cfi_def_cfa 7, -24
	ret
	.cfi_endproc
.LFE5505:
	.seh_endproc
	.section	.text$_ZNKSt19__shared_ptr_accessI10IGameStateLN9__gnu_cxx12_Lock_policyE2ELb0ELb0EEptEv,"x"
	.linkonce discard
	.align 2
	.globl	_ZNKSt19__shared_ptr_accessI10IGameStateLN9__gnu_cxx12_Lock_policyE2ELb0ELb0EEptEv
	.def	_ZNKSt19__shared_ptr_accessI10IGameStateLN9__gnu_cxx12_Lock_policyE2ELb0ELb0EEptEv;	.scl	2;	.type	32;	.endef
	.seh_proc	_ZNKSt19__shared_ptr_accessI10IGameStateLN9__gnu_cxx12_Lock_policyE2ELb0ELb0EEptEv
_ZNKSt19__shared_ptr_accessI10IGameStateLN9__gnu_cxx12_Lock_policyE2ELb0ELb0EEptEv:
.LFB5506:
	.loc 5 994 7
	.cfi_startproc
	pushq	%rbp
	.seh_pushreg	%rbp
	.cfi_def_cfa_offset 16
	.cfi_offset 6, -16
	movq	%rsp, %rbp
	.seh_setframe	%rbp, 0
	.cfi_def_cfa_register 6
	subq	$32, %rsp
	.seh_stackalloc	32
	.seh_endprologue
	movq	%rcx, 16(%rbp)
	.loc 5 997 16
	movq	16(%rbp), %rcx
	call	_ZNKSt19__shared_ptr_accessI10IGameStateLN9__gnu_cxx12_Lock_policyE2ELb0ELb0EE6_M_getEv
	.loc 5 998 7
	addq	$32, %rsp
	popq	%rbp
	.cfi_restore 6
	.cfi_def_cfa 7, 8
	ret
	.cfi_endproc
.LFE5506:
	.seh_endproc
	.section	.text$_ZNSt5arrayIbLy349EEixEy,"x"
	.linkonce discard
	.align 2
	.globl	_ZNSt5arrayIbLy349EEixEy
	.def	_ZNSt5arrayIbLy349EEixEy;	.scl	2;	.type	32;	.endef
	.seh_proc	_ZNSt5arrayIbLy349EEixEy
_ZNSt5arrayIbLy349EEixEy:
.LFB5507:
	.loc 8 185 7
	.cfi_startproc
	pushq	%rbp
	.seh_pushreg	%rbp
	.cfi_def_cfa_offset 16
	.cfi_offset 6, -16
	movq	%rsp, %rbp
	.seh_setframe	%rbp, 0
	.cfi_def_cfa_register 6
	subq	$32, %rsp
	.seh_stackalloc	32
	.seh_endprologue
	movq	%rcx, 16(%rbp)
	movq	%rdx, 24(%rbp)
	.loc 8 186 33
	movq	16(%rbp), %rax
	.loc 8 186 32
	movq	24(%rbp), %rdx
	movq	%rax, %rcx
	call	_ZNSt14__array_traitsIbLy349EE6_S_refERA349_Kby
	.loc 8 186 49
	addq	$32, %rsp
	popq	%rbp
	.cfi_restore 6
	.cfi_def_cfa 7, 8
	ret
	.cfi_endproc
.LFE5507:
	.seh_endproc
	.section	.text$_ZNKSt12__shared_ptrIN12RenderEngine13ShaderProgramELN9__gnu_cxx12_Lock_policyE2EEcvbEv,"x"
	.linkonce discard
	.align 2
	.globl	_ZNKSt12__shared_ptrIN12RenderEngine13ShaderProgramELN9__gnu_cxx12_Lock_policyE2EEcvbEv
	.def	_ZNKSt12__shared_ptrIN12RenderEngine13ShaderProgramELN9__gnu_cxx12_Lock_policyE2EEcvbEv;	.scl	2;	.type	32;	.endef
	.seh_proc	_ZNKSt12__shared_ptrIN12RenderEngine13ShaderProgramELN9__gnu_cxx12_Lock_policyE2EEcvbEv
_ZNKSt12__shared_ptrIN12RenderEngine13ShaderProgramELN9__gnu_cxx12_Lock_policyE2EEcvbEv:
.LFB5514:
	.loc 5 1294 16
	.cfi_startproc
	pushq	%rbp
	.seh_pushreg	%rbp
	.cfi_def_cfa_offset 16
	.cfi_offset 6, -16
	movq	%rsp, %rbp
	.seh_setframe	%rbp, 0
	.cfi_def_cfa_register 6
	.seh_endprologue
	movq	%rcx, 16(%rbp)
	.loc 5 1295 16
	movq	16(%rbp), %rax
	movq	(%rax), %rax
	.loc 5 1295 38
	testq	%rax, %rax
	setne	%al
	.loc 5 1295 44
	popq	%rbp
	.cfi_restore 6
	.cfi_def_cfa 7, 8
	ret
	.cfi_endproc
.LFE5514:
	.seh_endproc
	.section	.text$_ZSt11make_sharedI11StartScreenJRKSt6vectorINSt7__cxx1112basic_stringIcSt11char_traitsIcESaIcEEESaIS7_EEEESt10shared_ptrIT_EDpOT0_,"x"
	.linkonce discard
	.globl	_ZSt11make_sharedI11StartScreenJRKSt6vectorINSt7__cxx1112basic_stringIcSt11char_traitsIcESaIcEEESaIS7_EEEESt10shared_ptrIT_EDpOT0_
	.def	_ZSt11make_sharedI11StartScreenJRKSt6vectorINSt7__cxx1112basic_stringIcSt11char_traitsIcESaIcEEESaIS7_EEEESt10shared_ptrIT_EDpOT0_;	.scl	2;	.type	32;	.endef
	.seh_proc	_ZSt11make_sharedI11StartScreenJRKSt6vectorINSt7__cxx1112basic_stringIcSt11char_traitsIcESaIcEEESaIS7_EEEESt10shared_ptrIT_EDpOT0_
_ZSt11make_sharedI11StartScreenJRKSt6vectorINSt7__cxx1112basic_stringIcSt11char_traitsIcESaIcEEESaIS7_EEEESt10shared_ptrIT_EDpOT0_:
.LFB5518:
	.loc 6 719 5
	.cfi_startproc
	pushq	%rbp
	.seh_pushreg	%rbp
	.cfi_def_cfa_offset 16
	.cfi_offset 6, -16
	pushq	%rbx
	.seh_pushreg	%rbx
	.cfi_def_cfa_offset 24
	.cfi_offset 3, -24
	subq	$56, %rsp
	.seh_stackalloc	56
	.cfi_def_cfa_offset 80
	leaq	128(%rsp), %rbp
	.seh_setframe	%rbp, 128
	.cfi_def_cfa 6, -48
	.seh_endprologue
	movq	%rcx, -48(%rbp)
	movq	%rdx, -40(%rbp)
	.loc 6 723 42
	movq	-40(%rbp), %rax
	movq	%rax, %rcx
	call	_ZSt7forwardIRKSt6vectorINSt7__cxx1112basic_stringIcSt11char_traitsIcESaIcEEESaIS6_EEEOT_RNSt16remove_referenceISB_E4typeE
	movq	%rax, %rbx
	leaq	-81(%rbp), %rax
	movq	%rax, %rcx
	call	_ZNSaI11StartScreenEC1Ev
	movq	-48(%rbp), %rcx
	leaq	-81(%rbp), %rax
	movq	%rbx, %r8
	movq	%rax, %rdx
.LEHB15:
	call	_ZSt15allocate_sharedI11StartScreenSaIS0_EJRKSt6vectorINSt7__cxx1112basic_stringIcSt11char_traitsIcESaIcEEESaIS8_EEEESt10shared_ptrIT_ERKT0_DpOT1_
.LEHE15:
	leaq	-81(%rbp), %rax
	movq	%rax, %rcx
	call	_ZNSaI11StartScreenED1Ev
	jmp	.L94
.L93:
	movq	%rax, %rbx
	leaq	-81(%rbp), %rax
	movq	%rax, %rcx
	call	_ZNSaI11StartScreenED1Ev
	movq	%rbx, %rax
	movq	%rax, %rcx
.LEHB16:
	call	_Unwind_Resume
.LEHE16:
.L94:
	.loc 6 724 5
	movq	-48(%rbp), %rax
	addq	$56, %rsp
	popq	%rbx
	.cfi_restore 3
	popq	%rbp
	.cfi_restore 6
	.cfi_def_cfa 7, -40
	ret
	.cfi_endproc
.LFE5518:
	.seh_handler	__gxx_personality_seh0, @unwind, @except
	.seh_handlerdata
.LLSDA5518:
	.byte	0xff
	.byte	0xff
	.byte	0x1
	.uleb128 .LLSDACSE5518-.LLSDACSB5518
.LLSDACSB5518:
	.uleb128 .LEHB15-.LFB5518
	.uleb128 .LEHE15-.LEHB15
	.uleb128 .L93-.LFB5518
	.uleb128 0
	.uleb128 .LEHB16-.LFB5518
	.uleb128 .LEHE16-.LEHB16
	.uleb128 0
	.uleb128 0
.LLSDACSE5518:
	.section	.text$_ZSt11make_sharedI11StartScreenJRKSt6vectorINSt7__cxx1112basic_stringIcSt11char_traitsIcESaIcEEESaIS7_EEEESt10shared_ptrIT_EDpOT0_,"x"
	.linkonce discard
	.seh_endproc
	.section	.text$_ZNSt10shared_ptrI10IGameStateEaSI11StartScreenEENSt9enable_ifIXsrSt13is_assignableIRSt12__shared_ptrIS0_LN9__gnu_cxx12_Lock_policyE2EES_IT_EE5valueERS1_E4typeEOSC_,"x"
	.linkonce discard
	.align 2
	.globl	_ZNSt10shared_ptrI10IGameStateEaSI11StartScreenEENSt9enable_ifIXsrSt13is_assignableIRSt12__shared_ptrIS0_LN9__gnu_cxx12_Lock_policyE2EES_IT_EE5valueERS1_E4typeEOSC_
	.def	_ZNSt10shared_ptrI10IGameStateEaSI11StartScreenEENSt9enable_ifIXsrSt13is_assignableIRSt12__shared_ptrIS0_LN9__gnu_cxx12_Lock_policyE2EES_IT_EE5valueERS1_E4typeEOSC_;	.scl	2;	.type	32;	.endef
	.seh_proc	_ZNSt10shared_ptrI10IGameStateEaSI11StartScreenEENSt9enable_ifIXsrSt13is_assignableIRSt12__shared_ptrIS0_LN9__gnu_cxx12_Lock_policyE2EES_IT_EE5valueERS1_E4typeEOSC_
_ZNSt10shared_ptrI10IGameStateEaSI11StartScreenEENSt9enable_ifIXsrSt13is_assignableIRSt12__shared_ptrIS0_LN9__gnu_cxx12_Lock_policyE2EES_IT_EE5valueERS1_E4typeEOSC_:
.LFB5519:
	.loc 6 341 2
	.cfi_startproc
	pushq	%rbp
	.seh_pushreg	%rbp
	.cfi_def_cfa_offset 16
	.cfi_offset 6, -16
	pushq	%rbx
	.seh_pushreg	%rbx
	.cfi_def_cfa_offset 24
	.cfi_offset 3, -24
	subq	$40, %rsp
	.seh_stackalloc	40
	.cfi_def_cfa_offset 64
	leaq	128(%rsp), %rbp
	.seh_setframe	%rbp, 128
	.cfi_def_cfa 6, -64
	.seh_endprologue
	movq	%rcx, -64(%rbp)
	movq	%rdx, -56(%rbp)
	.loc 6 343 4
	movq	-64(%rbp), %rbx
	.loc 6 343 48
	movq	-56(%rbp), %rax
	movq	%rax, %rcx
	call	_ZSt4moveIRSt10shared_ptrI11StartScreenEEONSt16remove_referenceIT_E4typeEOS5_
	.loc 6 343 4
	movq	%rax, %rdx
	movq	%rbx, %rcx
	call	_ZNSt12__shared_ptrI10IGameStateLN9__gnu_cxx12_Lock_policyE2EEaSI11StartScreenEENSt9enable_ifIXsrSt20__sp_compatible_withIPT_PS0_E5valueERS3_E4typeEOS_IS8_LS2_2EE
	.loc 6 344 12
	movq	-64(%rbp), %rax
	.loc 6 345 2
	addq	$40, %rsp
	popq	%rbx
	.cfi_restore 3
	popq	%rbp
	.cfi_restore 6
	.cfi_def_cfa 7, -24
	ret
	.cfi_endproc
.LFE5519:
	.seh_endproc
	.section	.text$_ZN3glm5orthoIfEENS_3matILi4ELi4ET_LNS_9qualifierE0EEES2_S2_S2_S2_S2_S2_,"x"
	.linkonce discard
	.globl	_ZN3glm5orthoIfEENS_3matILi4ELi4ET_LNS_9qualifierE0EEES2_S2_S2_S2_S2_S2_
	.def	_ZN3glm5orthoIfEENS_3matILi4ELi4ET_LNS_9qualifierE0EEES2_S2_S2_S2_S2_S2_;	.scl	2;	.type	32;	.endef
	.seh_proc	_ZN3glm5orthoIfEENS_3matILi4ELi4ET_LNS_9qualifierE0EEES2_S2_S2_S2_S2_S2_
_ZN3glm5orthoIfEENS_3matILi4ELi4ET_LNS_9qualifierE0EEES2_S2_S2_S2_S2_S2_:
.LFB5520:
	.file 9 "N:/CPP_prj/SimpleCoding/BattleCity/external/glm/glm/ext/matrix_clip_space.inl"
	.loc 9 109 32
	.cfi_startproc
	pushq	%rbp
	.seh_pushreg	%rbp
	.cfi_def_cfa_offset 16
	.cfi_offset 6, -16
	movq	%rsp, %rbp
	.seh_setframe	%rbp, 0
	.cfi_def_cfa_register 6
	subq	$64, %rsp
	.seh_stackalloc	64
	.seh_endprologue
	movq	%rcx, 16(%rbp)
	movss	%xmm1, 24(%rbp)
	movss	%xmm2, 32(%rbp)
	movss	%xmm3, 40(%rbp)
	.loc 9 118 21
	movq	16(%rbp), %rax
	movss	40(%rbp), %xmm3
	movss	32(%rbp), %xmm2
	movss	24(%rbp), %xmm1
	movss	64(%rbp), %xmm0
	movss	%xmm0, 48(%rsp)
	movss	56(%rbp), %xmm0
	movss	%xmm0, 40(%rsp)
	movss	48(%rbp), %xmm0
	movss	%xmm0, 32(%rsp)
	movq	%rax, %rcx
	call	_ZN3glm10orthoRH_NOIfEENS_3matILi4ELi4ET_LNS_9qualifierE0EEES2_S2_S2_S2_S2_S2_
	.loc 9 118 59
	nop
	.loc 9 120 2
	movq	16(%rbp), %rax
	addq	$64, %rsp
	popq	%rbp
	.cfi_restore 6
	.cfi_def_cfa 7, 8
	ret
	.cfi_endproc
.LFE5520:
	.seh_endproc
	.section	.text$_ZNKSt19__shared_ptr_accessIN12RenderEngine13ShaderProgramELN9__gnu_cxx12_Lock_policyE2ELb0ELb0EEptEv,"x"
	.linkonce discard
	.align 2
	.globl	_ZNKSt19__shared_ptr_accessIN12RenderEngine13ShaderProgramELN9__gnu_cxx12_Lock_policyE2ELb0ELb0EEptEv
	.def	_ZNKSt19__shared_ptr_accessIN12RenderEngine13ShaderProgramELN9__gnu_cxx12_Lock_policyE2ELb0ELb0EEptEv;	.scl	2;	.type	32;	.endef
	.seh_proc	_ZNKSt19__shared_ptr_accessIN12RenderEngine13ShaderProgramELN9__gnu_cxx12_Lock_policyE2ELb0ELb0EEptEv
_ZNKSt19__shared_ptr_accessIN12RenderEngine13ShaderProgramELN9__gnu_cxx12_Lock_policyE2ELb0ELb0EEptEv:
.LFB5521:
	.loc 5 994 7
	.cfi_startproc
	pushq	%rbp
	.seh_pushreg	%rbp
	.cfi_def_cfa_offset 16
	.cfi_offset 6, -16
	movq	%rsp, %rbp
	.seh_setframe	%rbp, 0
	.cfi_def_cfa_register 6
	subq	$32, %rsp
	.seh_stackalloc	32
	.seh_endprologue
	movq	%rcx, 16(%rbp)
	.loc 5 997 16
	movq	16(%rbp), %rcx
	call	_ZNKSt19__shared_ptr_accessIN12RenderEngine13ShaderProgramELN9__gnu_cxx12_Lock_policyE2ELb0ELb0EE6_M_getEv
	.loc 5 998 7
	addq	$32, %rsp
	popq	%rbp
	.cfi_restore 6
	.cfi_def_cfa 7, 8
	ret
	.cfi_endproc
.LFE5521:
	.seh_endproc
	.section	.text$_ZNKSt6vectorIS_INSt7__cxx1112basic_stringIcSt11char_traitsIcESaIcEEESaIS5_EESaIS7_EEixEy,"x"
	.linkonce discard
	.align 2
	.globl	_ZNKSt6vectorIS_INSt7__cxx1112basic_stringIcSt11char_traitsIcESaIcEEESaIS5_EESaIS7_EEixEy
	.def	_ZNKSt6vectorIS_INSt7__cxx1112basic_stringIcSt11char_traitsIcESaIcEEESaIS5_EESaIS7_EEixEy;	.scl	2;	.type	32;	.endef
	.seh_proc	_ZNKSt6vectorIS_INSt7__cxx1112basic_stringIcSt11char_traitsIcESaIcEEESaIS5_EESaIS7_EEixEy
_ZNKSt6vectorIS_INSt7__cxx1112basic_stringIcSt11char_traitsIcESaIcEEESaIS5_EESaIS7_EEixEy:
.LFB5522:
	.file 10 "C:/Program Files/CodeBlocks/MinGW/lib/gcc/x86_64-w64-mingw32/8.1.0/include/c++/bits/stl_vector.h"
	.loc 10 948 7
	.cfi_startproc
	pushq	%rbp
	.seh_pushreg	%rbp
	.cfi_def_cfa_offset 16
	.cfi_offset 6, -16
	movq	%rsp, %rbp
	.seh_setframe	%rbp, 0
	.cfi_def_cfa_register 6
	.seh_endprologue
	movq	%rcx, 16(%rbp)
	movq	%rdx, 24(%rbp)
	.loc 10 951 25
	movq	16(%rbp), %rax
	movq	(%rax), %rcx
	.loc 10 951 34
	movq	24(%rbp), %rdx
	movq	%rdx, %rax
	addq	%rax, %rax
	addq	%rdx, %rax
	salq	$3, %rax
	.loc 10 951 39
	addq	%rcx, %rax
	.loc 10 952 7
	popq	%rbp
	.cfi_restore 6
	.cfi_def_cfa 7, 8
	ret
	.cfi_endproc
.LFE5522:
	.seh_endproc
	.section	.text$_ZSt11make_sharedI5LevelJRKSt6vectorINSt7__cxx1112basic_stringIcSt11char_traitsIcESaIcEEESaIS7_EEEESt10shared_ptrIT_EDpOT0_,"x"
	.linkonce discard
	.globl	_ZSt11make_sharedI5LevelJRKSt6vectorINSt7__cxx1112basic_stringIcSt11char_traitsIcESaIcEEESaIS7_EEEESt10shared_ptrIT_EDpOT0_
	.def	_ZSt11make_sharedI5LevelJRKSt6vectorINSt7__cxx1112basic_stringIcSt11char_traitsIcESaIcEEESaIS7_EEEESt10shared_ptrIT_EDpOT0_;	.scl	2;	.type	32;	.endef
	.seh_proc	_ZSt11make_sharedI5LevelJRKSt6vectorINSt7__cxx1112basic_stringIcSt11char_traitsIcESaIcEEESaIS7_EEEESt10shared_ptrIT_EDpOT0_
_ZSt11make_sharedI5LevelJRKSt6vectorINSt7__cxx1112basic_stringIcSt11char_traitsIcESaIcEEESaIS7_EEEESt10shared_ptrIT_EDpOT0_:
.LFB5523:
	.loc 6 719 5
	.cfi_startproc
	pushq	%rbp
	.seh_pushreg	%rbp
	.cfi_def_cfa_offset 16
	.cfi_offset 6, -16
	pushq	%rbx
	.seh_pushreg	%rbx
	.cfi_def_cfa_offset 24
	.cfi_offset 3, -24
	subq	$56, %rsp
	.seh_stackalloc	56
	.cfi_def_cfa_offset 80
	leaq	128(%rsp), %rbp
	.seh_setframe	%rbp, 128
	.cfi_def_cfa 6, -48
	.seh_endprologue
	movq	%rcx, -48(%rbp)
	movq	%rdx, -40(%rbp)
	.loc 6 723 42
	movq	-40(%rbp), %rax
	movq	%rax, %rcx
	call	_ZSt7forwardIRKSt6vectorINSt7__cxx1112basic_stringIcSt11char_traitsIcESaIcEEESaIS6_EEEOT_RNSt16remove_referenceISB_E4typeE
	movq	%rax, %rbx
	leaq	-81(%rbp), %rax
	movq	%rax, %rcx
	call	_ZNSaI5LevelEC1Ev
	movq	-48(%rbp), %rcx
	leaq	-81(%rbp), %rax
	movq	%rbx, %r8
	movq	%rax, %rdx
.LEHB17:
	call	_ZSt15allocate_sharedI5LevelSaIS0_EJRKSt6vectorINSt7__cxx1112basic_stringIcSt11char_traitsIcESaIcEEESaIS8_EEEESt10shared_ptrIT_ERKT0_DpOT1_
.LEHE17:
	leaq	-81(%rbp), %rax
	movq	%rax, %rcx
	call	_ZNSaI5LevelED1Ev
	jmp	.L107
.L106:
	movq	%rax, %rbx
	leaq	-81(%rbp), %rax
	movq	%rax, %rcx
	call	_ZNSaI5LevelED1Ev
	movq	%rbx, %rax
	movq	%rax, %rcx
.LEHB18:
	call	_Unwind_Resume
.LEHE18:
.L107:
	.loc 6 724 5
	movq	-48(%rbp), %rax
	addq	$56, %rsp
	popq	%rbx
	.cfi_restore 3
	popq	%rbp
	.cfi_restore 6
	.cfi_def_cfa 7, -40
	ret
	.cfi_endproc
.LFE5523:
	.seh_handler	__gxx_personality_seh0, @unwind, @except
	.seh_handlerdata
.LLSDA5523:
	.byte	0xff
	.byte	0xff
	.byte	0x1
	.uleb128 .LLSDACSE5523-.LLSDACSB5523
.LLSDACSB5523:
	.uleb128 .LEHB17-.LFB5523
	.uleb128 .LEHE17-.LEHB17
	.uleb128 .L106-.LFB5523
	.uleb128 0
	.uleb128 .LEHB18-.LFB5523
	.uleb128 .LEHE18-.LEHB18
	.uleb128 0
	.uleb128 0
.LLSDACSE5523:
	.section	.text$_ZSt11make_sharedI5LevelJRKSt6vectorINSt7__cxx1112basic_stringIcSt11char_traitsIcESaIcEEESaIS7_EEEESt10shared_ptrIT_EDpOT0_,"x"
	.linkonce discard
	.seh_endproc
	.section	.text$_ZNSt10shared_ptrI10IGameStateEaSI5LevelEENSt9enable_ifIXsrSt13is_assignableIRSt12__shared_ptrIS0_LN9__gnu_cxx12_Lock_policyE2EERKS_IT_EE5valueERS1_E4typeESE_,"x"
	.linkonce discard
	.align 2
	.globl	_ZNSt10shared_ptrI10IGameStateEaSI5LevelEENSt9enable_ifIXsrSt13is_assignableIRSt12__shared_ptrIS0_LN9__gnu_cxx12_Lock_policyE2EERKS_IT_EE5valueERS1_E4typeESE_
	.def	_ZNSt10shared_ptrI10IGameStateEaSI5LevelEENSt9enable_ifIXsrSt13is_assignableIRSt12__shared_ptrIS0_LN9__gnu_cxx12_Lock_policyE2EERKS_IT_EE5valueERS1_E4typeESE_;	.scl	2;	.type	32;	.endef
	.seh_proc	_ZNSt10shared_ptrI10IGameStateEaSI5LevelEENSt9enable_ifIXsrSt13is_assignableIRSt12__shared_ptrIS0_LN9__gnu_cxx12_Lock_policyE2EERKS_IT_EE5valueERS1_E4typeESE_
_ZNSt10shared_ptrI10IGameStateEaSI5LevelEENSt9enable_ifIXsrSt13is_assignableIRSt12__shared_ptrIS0_LN9__gnu_cxx12_Lock_policyE2EERKS_IT_EE5valueERS1_E4typeESE_:
.LFB5527:
	.loc 6 313 2
	.cfi_startproc
	pushq	%rbp
	.seh_pushreg	%rbp
	.cfi_def_cfa_offset 16
	.cfi_offset 6, -16
	movq	%rsp, %rbp
	.seh_setframe	%rbp, 0
	.cfi_def_cfa_register 6
	subq	$32, %rsp
	.seh_stackalloc	32
	.seh_endprologue
	movq	%rcx, 16(%rbp)
	movq	%rdx, 24(%rbp)
	.loc 6 315 4
	movq	16(%rbp), %rax
	movq	24(%rbp), %rdx
	movq	%rax, %rcx
	call	_ZNSt12__shared_ptrI10IGameStateLN9__gnu_cxx12_Lock_policyE2EEaSI5LevelEENSt9enable_ifIXsrSt20__sp_compatible_withIPT_PS0_E5valueERS3_E4typeERKS_IS8_LS2_2EE
	.loc 6 316 12
	movq	16(%rbp), %rax
	.loc 6 317 2
	addq	$32, %rsp
	popq	%rbp
	.cfi_restore 6
	.cfi_def_cfa 7, 8
	ret
	.cfi_endproc
.LFE5527:
	.seh_endproc
	.section	.text$_ZNSt14__shared_countILN9__gnu_cxx12_Lock_policyE2EEC1ERKS2_,"x"
	.linkonce discard
	.align 2
	.globl	_ZNSt14__shared_countILN9__gnu_cxx12_Lock_policyE2EEC1ERKS2_
	.def	_ZNSt14__shared_countILN9__gnu_cxx12_Lock_policyE2EEC1ERKS2_;	.scl	2;	.type	32;	.endef
	.seh_proc	_ZNSt14__shared_countILN9__gnu_cxx12_Lock_policyE2EEC1ERKS2_
_ZNSt14__shared_countILN9__gnu_cxx12_Lock_policyE2EEC1ERKS2_:
.LFB5530:
	.loc 5 715 7
	.cfi_startproc
	pushq	%rbp
	.seh_pushreg	%rbp
	.cfi_def_cfa_offset 16
	.cfi_offset 6, -16
	movq	%rsp, %rbp
	.seh_setframe	%rbp, 0
	.cfi_def_cfa_register 6
	subq	$32, %rsp
	.seh_stackalloc	32
	.seh_endprologue
	movq	%rcx, 16(%rbp)
	movq	%rdx, 24(%rbp)
.LBB18:
	.loc 5 716 19
	movq	24(%rbp), %rax
	movq	(%rax), %rdx
	.loc 5 716 24
	movq	16(%rbp), %rax
	movq	%rdx, (%rax)
	.loc 5 718 6
	movq	16(%rbp), %rax
	movq	(%rax), %rax
	.loc 5 718 2
	testq	%rax, %rax
	je	.L112
	.loc 5 719 4
	movq	16(%rbp), %rax
	movq	(%rax), %rax
	movq	%rax, %rcx
	call	_ZNSt16_Sp_counted_baseILN9__gnu_cxx12_Lock_policyE2EE15_M_add_ref_copyEv
.L112:
.LBE18:
	.loc 5 720 7
	nop
	addq	$32, %rsp
	popq	%rbp
	.cfi_restore 6
	.cfi_def_cfa 7, 8
	ret
	.cfi_endproc
.LFE5530:
	.seh_endproc
	.section	.text$_ZNSt12__shared_ptrI10IGameStateLN9__gnu_cxx12_Lock_policyE2EEC2Ev,"x"
	.linkonce discard
	.align 2
	.globl	_ZNSt12__shared_ptrI10IGameStateLN9__gnu_cxx12_Lock_policyE2EEC2Ev
	.def	_ZNSt12__shared_ptrI10IGameStateLN9__gnu_cxx12_Lock_policyE2EEC2Ev;	.scl	2;	.type	32;	.endef
	.seh_proc	_ZNSt12__shared_ptrI10IGameStateLN9__gnu_cxx12_Lock_policyE2EEC2Ev
_ZNSt12__shared_ptrI10IGameStateLN9__gnu_cxx12_Lock_policyE2EEC2Ev:
.LFB5653:
	.loc 5 1100 17
	.cfi_startproc
	pushq	%rbp
	.seh_pushreg	%rbp
	.cfi_def_cfa_offset 16
	.cfi_offset 6, -16
	movq	%rsp, %rbp
	.seh_setframe	%rbp, 0
	.cfi_def_cfa_register 6
	subq	$32, %rsp
	.seh_stackalloc	32
	.seh_endprologue
	movq	%rcx, 16(%rbp)
.LBB19:
	.loc 5 1101 32
	movq	16(%rbp), %rax
	movq	$0, (%rax)
	movq	16(%rbp), %rax
	addq	$8, %rax
	movq	%rax, %rcx
	call	_ZNSt14__shared_countILN9__gnu_cxx12_Lock_policyE2EEC1Ev
.LBE19:
	.loc 5 1102 9
	nop
	addq	$32, %rsp
	popq	%rbp
	.cfi_restore 6
	.cfi_def_cfa 7, 8
	ret
	.cfi_endproc
.LFE5653:
	.seh_endproc
	.section	.text$_ZNSt16_Sp_counted_baseILN9__gnu_cxx12_Lock_policyE2EE10_M_releaseEv,"x"
	.linkonce discard
	.align 2
	.globl	_ZNSt16_Sp_counted_baseILN9__gnu_cxx12_Lock_policyE2EE10_M_releaseEv
	.def	_ZNSt16_Sp_counted_baseILN9__gnu_cxx12_Lock_policyE2EE10_M_releaseEv;	.scl	2;	.type	32;	.endef
	.seh_proc	_ZNSt16_Sp_counted_baseILN9__gnu_cxx12_Lock_policyE2EE10_M_releaseEv
_ZNSt16_Sp_counted_baseILN9__gnu_cxx12_Lock_policyE2EE10_M_releaseEv:
.LFB5655:
	.loc 5 154 7
	.cfi_startproc
	pushq	%rbp
	.seh_pushreg	%rbp
	.cfi_def_cfa_offset 16
	.cfi_offset 6, -16
	movq	%rsp, %rbp
	.seh_setframe	%rbp, 0
	.cfi_def_cfa_register 6
	subq	$32, %rsp
	.seh_stackalloc	32
	.seh_endprologue
	movq	%rcx, 16(%rbp)
	.loc 5 158 44
	movq	16(%rbp), %rax
	addq	$8, %rax
	movl	$-1, %edx
	movq	%rax, %rcx
	call	_ZN9__gnu_cxxL27__exchange_and_add_dispatchEPii
	.loc 5 158 64
	cmpl	$1, %eax
	sete	%al
	.loc 5 158 2
	testb	%al, %al
	je	.L116
	.loc 5 161 6
	movq	16(%rbp), %rax
	movq	(%rax), %rax
	addq	$16, %rax
	movq	(%rax), %rax
	movq	16(%rbp), %rcx
	call	*%rax
.LVL7:
	.loc 5 173 48
	movq	16(%rbp), %rax
	addq	$12, %rax
	movl	$-1, %edx
	movq	%rax, %rcx
	call	_ZN9__gnu_cxxL27__exchange_and_add_dispatchEPii
	.loc 5 174 18
	cmpl	$1, %eax
	sete	%al
	.loc 5 173 6
	testb	%al, %al
	je	.L116
	.loc 5 177 10
	movq	16(%rbp), %rax
	movq	(%rax), %rax
	addq	$24, %rax
	movq	(%rax), %rax
	movq	16(%rbp), %rcx
	call	*%rax
.LVL8:
.L116:
	.loc 5 180 7
	nop
	addq	$32, %rsp
	popq	%rbp
	.cfi_restore 6
	.cfi_def_cfa 7, 8
	ret
	.cfi_endproc
.LFE5655:
	.seh_endproc
	.section	.text$_ZNSt5arrayIbLy349EE5beginEv,"x"
	.linkonce discard
	.align 2
	.globl	_ZNSt5arrayIbLy349EE5beginEv
	.def	_ZNSt5arrayIbLy349EE5beginEv;	.scl	2;	.type	32;	.endef
	.seh_proc	_ZNSt5arrayIbLy349EE5beginEv
_ZNSt5arrayIbLy349EE5beginEv:
.LFB5656:
	.loc 8 126 7
	.cfi_startproc
	pushq	%rbp
	.seh_pushreg	%rbp
	.cfi_def_cfa_offset 16
	.cfi_offset 6, -16
	movq	%rsp, %rbp
	.seh_setframe	%rbp, 0
	.cfi_def_cfa_register 6
	subq	$32, %rsp
	.seh_stackalloc	32
	.seh_endprologue
	movq	%rcx, 16(%rbp)
	.loc 8 127 16
	movq	16(%rbp), %rcx
	call	_ZNSt5arrayIbLy349EE4dataEv
	.loc 8 127 34
	addq	$32, %rsp
	popq	%rbp
	.cfi_restore 6
	.cfi_def_cfa 7, 8
	ret
	.cfi_endproc
.LFE5656:
	.seh_endproc
	.section	.text$_ZNKSt5arrayIbLy349EE4sizeEv,"x"
	.linkonce discard
	.align 2
	.globl	_ZNKSt5arrayIbLy349EE4sizeEv
	.def	_ZNKSt5arrayIbLy349EE4sizeEv;	.scl	2;	.type	32;	.endef
	.seh_proc	_ZNKSt5arrayIbLy349EE4sizeEv
_ZNKSt5arrayIbLy349EE4sizeEv:
.LFB5657:
	.loc 8 175 7
	.cfi_startproc
	pushq	%rbp
	.seh_pushreg	%rbp
	.cfi_def_cfa_offset 16
	.cfi_offset 6, -16
	movq	%rsp, %rbp
	.seh_setframe	%rbp, 0
	.cfi_def_cfa_register 6
	.seh_endprologue
	movq	%rcx, 16(%rbp)
	.loc 8 175 38
	movl	$349, %eax
	.loc 8 175 43
	popq	%rbp
	.cfi_restore 6
	.cfi_def_cfa 7, 8
	ret
	.cfi_endproc
.LFE5657:
	.seh_endproc
	.section	.text$_ZSt6fill_nIPbybET_S1_T0_RKT1_,"x"
	.linkonce discard
	.globl	_ZSt6fill_nIPbybET_S1_T0_RKT1_
	.def	_ZSt6fill_nIPbybET_S1_T0_RKT1_;	.scl	2;	.type	32;	.endef
	.seh_proc	_ZSt6fill_nIPbybET_S1_T0_RKT1_
_ZSt6fill_nIPbybET_S1_T0_RKT1_:
.LFB5658:
	.file 11 "C:/Program Files/CodeBlocks/MinGW/lib/gcc/x86_64-w64-mingw32/8.1.0/include/c++/bits/stl_algobase.h"
	.loc 11 784 5
	.cfi_startproc
	pushq	%rbp
	.seh_pushreg	%rbp
	.cfi_def_cfa_offset 16
	.cfi_offset 6, -16
	movq	%rsp, %rbp
	.seh_setframe	%rbp, 0
	.cfi_def_cfa_register 6
	subq	$32, %rsp
	.seh_stackalloc	32
	.seh_endprologue
	movq	%rcx, 16(%rbp)
	movq	%rdx, 24(%rbp)
	movq	%r8, 32(%rbp)
	.loc 11 789 33
	movq	16(%rbp), %rcx
	call	_ZSt12__niter_baseIPbET_S1_
	movq	%rax, %rcx
	movq	32(%rbp), %rdx
	movq	24(%rbp), %rax
	movq	%rdx, %r8
	movq	%rax, %rdx
	call	_ZSt10__fill_n_aIPbybEN9__gnu_cxx11__enable_ifIXsrSt11__is_scalarIT1_E7__valueET_E6__typeES6_T0_RKS4_
	.loc 11 790 5
	addq	$32, %rsp
	popq	%rbp
	.cfi_restore 6
	.cfi_def_cfa 7, 8
	ret
	.cfi_endproc
.LFE5658:
	.seh_endproc
	.section	.text$_ZNKSt19__shared_ptr_accessI10IGameStateLN9__gnu_cxx12_Lock_policyE2ELb0ELb0EE6_M_getEv,"x"
	.linkonce discard
	.align 2
	.globl	_ZNKSt19__shared_ptr_accessI10IGameStateLN9__gnu_cxx12_Lock_policyE2ELb0ELb0EE6_M_getEv
	.def	_ZNKSt19__shared_ptr_accessI10IGameStateLN9__gnu_cxx12_Lock_policyE2ELb0ELb0EE6_M_getEv;	.scl	2;	.type	32;	.endef
	.seh_proc	_ZNKSt19__shared_ptr_accessI10IGameStateLN9__gnu_cxx12_Lock_policyE2ELb0ELb0EE6_M_getEv
_ZNKSt19__shared_ptr_accessI10IGameStateLN9__gnu_cxx12_Lock_policyE2ELb0ELb0EE6_M_getEv:
.LFB5659:
	.loc 5 1002 7
	.cfi_startproc
	pushq	%rbp
	.seh_pushreg	%rbp
	.cfi_def_cfa_offset 16
	.cfi_offset 6, -16
	movq	%rsp, %rbp
	.seh_setframe	%rbp, 0
	.cfi_def_cfa_register 6
	subq	$32, %rsp
	.seh_stackalloc	32
	.seh_endprologue
	movq	%rcx, 16(%rbp)
	.loc 5 1003 70
	movq	16(%rbp), %rcx
	call	_ZNKSt12__shared_ptrI10IGameStateLN9__gnu_cxx12_Lock_policyE2EE3getEv
	.loc 5 1003 73
	addq	$32, %rsp
	popq	%rbp
	.cfi_restore 6
	.cfi_def_cfa 7, 8
	ret
	.cfi_endproc
.LFE5659:
	.seh_endproc
	.section	.text$_ZNSt14__array_traitsIbLy349EE6_S_refERA349_Kby,"x"
	.linkonce discard
	.globl	_ZNSt14__array_traitsIbLy349EE6_S_refERA349_Kby
	.def	_ZNSt14__array_traitsIbLy349EE6_S_refERA349_Kby;	.scl	2;	.type	32;	.endef
	.seh_proc	_ZNSt14__array_traitsIbLy349EE6_S_refERA349_Kby
_ZNSt14__array_traitsIbLy349EE6_S_refERA349_Kby:
.LFB5660:
	.loc 8 55 7
	.cfi_startproc
	pushq	%rbp
	.seh_pushreg	%rbp
	.cfi_def_cfa_offset 16
	.cfi_offset 6, -16
	movq	%rsp, %rbp
	.seh_setframe	%rbp, 0
	.cfi_def_cfa_register 6
	.seh_endprologue
	movq	%rcx, 16(%rbp)
	movq	%rdx, 24(%rbp)
	.loc 8 56 41
	movq	16(%rbp), %rdx
	movq	24(%rbp), %rax
	addq	%rdx, %rax
	.loc 8 56 44
	popq	%rbp
	.cfi_restore 6
	.cfi_def_cfa 7, 8
	ret
	.cfi_endproc
.LFE5660:
	.seh_endproc
	.section	.text$_ZNSaI11StartScreenEC1Ev,"x"
	.linkonce discard
	.align 2
	.globl	_ZNSaI11StartScreenEC1Ev
	.def	_ZNSaI11StartScreenEC1Ev;	.scl	2;	.type	32;	.endef
	.seh_proc	_ZNSaI11StartScreenEC1Ev
_ZNSaI11StartScreenEC1Ev:
.LFB5670:
	.file 12 "C:/Program Files/CodeBlocks/MinGW/lib/gcc/x86_64-w64-mingw32/8.1.0/include/c++/bits/allocator.h"
	.loc 12 131 7
	.cfi_startproc
	pushq	%rbp
	.seh_pushreg	%rbp
	.cfi_def_cfa_offset 16
	.cfi_offset 6, -16
	movq	%rsp, %rbp
	.seh_setframe	%rbp, 0
	.cfi_def_cfa_register 6
	subq	$32, %rsp
	.seh_stackalloc	32
	.seh_endprologue
	movq	%rcx, 16(%rbp)
.LBB20:
	.loc 12 131 27
	movq	16(%rbp), %rcx
	call	_ZN9__gnu_cxx13new_allocatorI11StartScreenEC2Ev
.LBE20:
	.loc 12 131 29
	nop
	addq	$32, %rsp
	popq	%rbp
	.cfi_restore 6
	.cfi_def_cfa 7, 8
	ret
	.cfi_endproc
.LFE5670:
	.seh_endproc
	.section	.text$_ZNSaI11StartScreenED2Ev,"x"
	.linkonce discard
	.align 2
	.globl	_ZNSaI11StartScreenED2Ev
	.def	_ZNSaI11StartScreenED2Ev;	.scl	2;	.type	32;	.endef
	.seh_proc	_ZNSaI11StartScreenED2Ev
_ZNSaI11StartScreenED2Ev:
.LFB5672:
	.loc 12 139 7
	.cfi_startproc
	pushq	%rbp
	.seh_pushreg	%rbp
	.cfi_def_cfa_offset 16
	.cfi_offset 6, -16
	movq	%rsp, %rbp
	.seh_setframe	%rbp, 0
	.cfi_def_cfa_register 6
	subq	$32, %rsp
	.seh_stackalloc	32
	.seh_endprologue
	movq	%rcx, 16(%rbp)
.LBB21:
	.loc 12 139 30
	movq	16(%rbp), %rcx
	call	_ZN9__gnu_cxx13new_allocatorI11StartScreenED2Ev
.LBE21:
	nop
	addq	$32, %rsp
	popq	%rbp
	.cfi_restore 6
	.cfi_def_cfa 7, 8
	ret
	.cfi_endproc
.LFE5672:
	.seh_endproc
	.section	.text$_ZNSaI11StartScreenED1Ev,"x"
	.linkonce discard
	.align 2
	.globl	_ZNSaI11StartScreenED1Ev
	.def	_ZNSaI11StartScreenED1Ev;	.scl	2;	.type	32;	.endef
	.seh_proc	_ZNSaI11StartScreenED1Ev
_ZNSaI11StartScreenED1Ev:
.LFB5673:
	.loc 12 139 7
	.cfi_startproc
	pushq	%rbp
	.seh_pushreg	%rbp
	.cfi_def_cfa_offset 16
	.cfi_offset 6, -16
	movq	%rsp, %rbp
	.seh_setframe	%rbp, 0
	.cfi_def_cfa_register 6
	subq	$32, %rsp
	.seh_stackalloc	32
	.seh_endprologue
	movq	%rcx, 16(%rbp)
.LBB22:
	.loc 12 139 30
	movq	16(%rbp), %rcx
	call	_ZN9__gnu_cxx13new_allocatorI11StartScreenED2Ev
.LBE22:
	nop
	addq	$32, %rsp
	popq	%rbp
	.cfi_restore 6
	.cfi_def_cfa 7, 8
	ret
	.cfi_endproc
.LFE5673:
	.seh_endproc
	.section	.text$_ZSt7forwardIRKSt6vectorINSt7__cxx1112basic_stringIcSt11char_traitsIcESaIcEEESaIS6_EEEOT_RNSt16remove_referenceISB_E4typeE,"x"
	.linkonce discard
	.globl	_ZSt7forwardIRKSt6vectorINSt7__cxx1112basic_stringIcSt11char_traitsIcESaIcEEESaIS6_EEEOT_RNSt16remove_referenceISB_E4typeE
	.def	_ZSt7forwardIRKSt6vectorINSt7__cxx1112basic_stringIcSt11char_traitsIcESaIcEEESaIS6_EEEOT_RNSt16remove_referenceISB_E4typeE;	.scl	2;	.type	32;	.endef
	.seh_proc	_ZSt7forwardIRKSt6vectorINSt7__cxx1112basic_stringIcSt11char_traitsIcESaIcEEESaIS6_EEEOT_RNSt16remove_referenceISB_E4typeE
_ZSt7forwardIRKSt6vectorINSt7__cxx1112basic_stringIcSt11char_traitsIcESaIcEEESaIS6_EEEOT_RNSt16remove_referenceISB_E4typeE:
.LFB5674:
	.file 13 "C:/Program Files/CodeBlocks/MinGW/lib/gcc/x86_64-w64-mingw32/8.1.0/include/c++/bits/move.h"
	.loc 13 74 5
	.cfi_startproc
	pushq	%rbp
	.seh_pushreg	%rbp
	.cfi_def_cfa_offset 16
	.cfi_offset 6, -16
	movq	%rsp, %rbp
	.seh_setframe	%rbp, 0
	.cfi_def_cfa_register 6
	.seh_endprologue
	movq	%rcx, 16(%rbp)
	.loc 13 75 36
	movq	16(%rbp), %rax
	.loc 13 75 39
	popq	%rbp
	.cfi_restore 6
	.cfi_def_cfa 7, 8
	ret
	.cfi_endproc
.LFE5674:
	.seh_endproc
	.section	.text$_ZSt15allocate_sharedI11StartScreenSaIS0_EJRKSt6vectorINSt7__cxx1112basic_stringIcSt11char_traitsIcESaIcEEESaIS8_EEEESt10shared_ptrIT_ERKT0_DpOT1_,"x"
	.linkonce discard
	.globl	_ZSt15allocate_sharedI11StartScreenSaIS0_EJRKSt6vectorINSt7__cxx1112basic_stringIcSt11char_traitsIcESaIcEEESaIS8_EEEESt10shared_ptrIT_ERKT0_DpOT1_
	.def	_ZSt15allocate_sharedI11StartScreenSaIS0_EJRKSt6vectorINSt7__cxx1112basic_stringIcSt11char_traitsIcESaIcEEESaIS8_EEEESt10shared_ptrIT_ERKT0_DpOT1_;	.scl	2;	.type	32;	.endef
	.seh_proc	_ZSt15allocate_sharedI11StartScreenSaIS0_EJRKSt6vectorINSt7__cxx1112basic_stringIcSt11char_traitsIcESaIcEEESaIS8_EEEESt10shared_ptrIT_ERKT0_DpOT1_
_ZSt15allocate_sharedI11StartScreenSaIS0_EJRKSt6vectorINSt7__cxx1112basic_stringIcSt11char_traitsIcESaIcEEESaIS8_EEEESt10shared_ptrIT_ERKT0_DpOT1_:
.LFB5675:
	.loc 6 704 5
	.cfi_startproc
	pushq	%rbp
	.seh_pushreg	%rbp
	.cfi_def_cfa_offset 16
	.cfi_offset 6, -16
	pushq	%rbx
	.seh_pushreg	%rbx
	.cfi_def_cfa_offset 24
	.cfi_offset 3, -24
	subq	$56, %rsp
	.seh_stackalloc	56
	.cfi_def_cfa_offset 80
	leaq	128(%rsp), %rbp
	.seh_setframe	%rbp, 128
	.cfi_def_cfa 6, -48
	.seh_endprologue
	movq	%rcx, -48(%rbp)
	movq	%rdx, -40(%rbp)
	movq	%r8, -32(%rbp)
	.loc 6 707 39
	movq	-32(%rbp), %rax
	movq	%rax, %rcx
	call	_ZSt7forwardIRKSt6vectorINSt7__cxx1112basic_stringIcSt11char_traitsIcESaIcEEESaIS6_EEEOT_RNSt16remove_referenceISB_E4typeE
	movq	%rax, %rdx
	movq	-40(%rbp), %rax
	movq	%rdx, %r9
	movq	%rax, %r8
	movl	%ebx, %edx
	movq	-48(%rbp), %rcx
	call	_ZNSt10shared_ptrI11StartScreenEC1ISaIS0_EJRKSt6vectorINSt7__cxx1112basic_stringIcSt11char_traitsIcESaIcEEESaISA_EEEEESt19_Sp_make_shared_tagRKT_DpOT0_
	.loc 6 708 5
	movq	-48(%rbp), %rax
	addq	$56, %rsp
	popq	%rbx
	.cfi_restore 3
	popq	%rbp
	.cfi_restore 6
	.cfi_def_cfa 7, -40
	ret
	.cfi_endproc
.LFE5675:
	.seh_endproc
	.section	.text$_ZSt4moveIRSt10shared_ptrI11StartScreenEEONSt16remove_referenceIT_E4typeEOS5_,"x"
	.linkonce discard
	.globl	_ZSt4moveIRSt10shared_ptrI11StartScreenEEONSt16remove_referenceIT_E4typeEOS5_
	.def	_ZSt4moveIRSt10shared_ptrI11StartScreenEEONSt16remove_referenceIT_E4typeEOS5_;	.scl	2;	.type	32;	.endef
	.seh_proc	_ZSt4moveIRSt10shared_ptrI11StartScreenEEONSt16remove_referenceIT_E4typeEOS5_
_ZSt4moveIRSt10shared_ptrI11StartScreenEEONSt16remove_referenceIT_E4typeEOS5_:
.LFB5679:
	.loc 13 99 5
	.cfi_startproc
	pushq	%rbp
	.seh_pushreg	%rbp
	.cfi_def_cfa_offset 16
	.cfi_offset 6, -16
	movq	%rsp, %rbp
	.seh_setframe	%rbp, 0
	.cfi_def_cfa_register 6
	.seh_endprologue
	movq	%rcx, 16(%rbp)
	.loc 13 100 74
	movq	16(%rbp), %rax
	.loc 13 100 77
	popq	%rbp
	.cfi_restore 6
	.cfi_def_cfa 7, 8
	ret
	.cfi_endproc
.LFE5679:
	.seh_endproc
	.section	.text$_ZNSt12__shared_ptrI10IGameStateLN9__gnu_cxx12_Lock_policyE2EEaSI11StartScreenEENSt9enable_ifIXsrSt20__sp_compatible_withIPT_PS0_E5valueERS3_E4typeEOS_IS8_LS2_2EE,"x"
	.linkonce discard
	.align 2
	.globl	_ZNSt12__shared_ptrI10IGameStateLN9__gnu_cxx12_Lock_policyE2EEaSI11StartScreenEENSt9enable_ifIXsrSt20__sp_compatible_withIPT_PS0_E5valueERS3_E4typeEOS_IS8_LS2_2EE
	.def	_ZNSt12__shared_ptrI10IGameStateLN9__gnu_cxx12_Lock_policyE2EEaSI11StartScreenEENSt9enable_ifIXsrSt20__sp_compatible_withIPT_PS0_E5valueERS3_E4typeEOS_IS8_LS2_2EE;	.scl	2;	.type	32;	.endef
	.seh_proc	_ZNSt12__shared_ptrI10IGameStateLN9__gnu_cxx12_Lock_policyE2EEaSI11StartScreenEENSt9enable_ifIXsrSt20__sp_compatible_withIPT_PS0_E5valueERS3_E4typeEOS_IS8_LS2_2EE
_ZNSt12__shared_ptrI10IGameStateLN9__gnu_cxx12_Lock_policyE2EEaSI11StartScreenEENSt9enable_ifIXsrSt20__sp_compatible_withIPT_PS0_E5valueERS3_E4typeEOS_IS8_LS2_2EE:
.LFB5680:
	.loc 5 1253 2
	.cfi_startproc
	pushq	%rbp
	.seh_pushreg	%rbp
	.cfi_def_cfa_offset 16
	.cfi_offset 6, -16
	movq	%rsp, %rbp
	.seh_setframe	%rbp, 0
	.cfi_def_cfa_register 6
	subq	$48, %rsp
	.seh_stackalloc	48
	.seh_endprologue
	movq	%rcx, 16(%rbp)
	movq	%rdx, 24(%rbp)
	.loc 5 1255 26
	movq	24(%rbp), %rax
	movq	%rax, %rcx
	call	_ZSt4moveIRSt12__shared_ptrI11StartScreenLN9__gnu_cxx12_Lock_policyE2EEEONSt16remove_referenceIT_E4typeEOS7_
	movq	%rax, %rdx
	.loc 5 1255 4
	leaq	-16(%rbp), %rax
	movq	%rax, %rcx
	call	_ZNSt12__shared_ptrI10IGameStateLN9__gnu_cxx12_Lock_policyE2EEC1I11StartScreenvEEOS_IT_LS2_2EE
	leaq	-16(%rbp), %rax
	movq	16(%rbp), %rdx
	movq	%rax, %rcx
	call	_ZNSt12__shared_ptrI10IGameStateLN9__gnu_cxx12_Lock_policyE2EE4swapERS3_
	leaq	-16(%rbp), %rax
	movq	%rax, %rcx
	call	_ZNSt12__shared_ptrI10IGameStateLN9__gnu_cxx12_Lock_policyE2EED1Ev
	.loc 5 1256 12
	movq	16(%rbp), %rax
	.loc 5 1257 2
	addq	$48, %rsp
	popq	%rbp
	.cfi_restore 6
	.cfi_def_cfa 7, 8
	ret
	.cfi_endproc
.LFE5680:
	.seh_endproc
	.section	.text$_ZN3glm10orthoRH_NOIfEENS_3matILi4ELi4ET_LNS_9qualifierE0EEES2_S2_S2_S2_S2_S2_,"x"
	.linkonce discard
	.globl	_ZN3glm10orthoRH_NOIfEENS_3matILi4ELi4ET_LNS_9qualifierE0EEES2_S2_S2_S2_S2_S2_
	.def	_ZN3glm10orthoRH_NOIfEENS_3matILi4ELi4ET_LNS_9qualifierE0EEES2_S2_S2_S2_S2_S2_;	.scl	2;	.type	32;	.endef
	.seh_proc	_ZN3glm10orthoRH_NOIfEENS_3matILi4ELi4ET_LNS_9qualifierE0EEES2_S2_S2_S2_S2_S2_
_ZN3glm10orthoRH_NOIfEENS_3matILi4ELi4ET_LNS_9qualifierE0EEES2_S2_S2_S2_S2_S2_:
.LFB5681:
	.loc 9 55 32
	.cfi_startproc
	pushq	%rbp
	.seh_pushreg	%rbp
	.cfi_def_cfa_offset 16
	.cfi_offset 6, -16
	movq	%rsp, %rbp
	.seh_setframe	%rbp, 0
	.cfi_def_cfa_register 6
	subq	$64, %rsp
	.seh_stackalloc	64
	movaps	%xmm6, -32(%rbp)
	.seh_savexmm	%xmm6, 32
	movaps	%xmm7, -16(%rbp)
	.seh_savexmm	%xmm7, 48
	.cfi_offset 23, -48
	.cfi_offset 24, -32
	.seh_endprologue
	movq	%rcx, 16(%rbp)
	movss	%xmm1, 24(%rbp)
	movss	%xmm2, 32(%rbp)
	movss	%xmm3, 40(%rbp)
	.loc 9 57 26
	movq	16(%rbp), %rax
	movss	.LC8(%rip), %xmm0
	movss	%xmm0, (%rax)
	movq	16(%rbp), %rax
	pxor	%xmm0, %xmm0
	movss	%xmm0, 4(%rax)
	movq	16(%rbp), %rax
	pxor	%xmm0, %xmm0
	movss	%xmm0, 8(%rax)
	movq	16(%rbp), %rax
	pxor	%xmm0, %xmm0
	movss	%xmm0, 12(%rax)
	movq	16(%rbp), %rax
	pxor	%xmm0, %xmm0
	movss	%xmm0, 16(%rax)
	movq	16(%rbp), %rax
	movss	.LC8(%rip), %xmm0
	movss	%xmm0, 20(%rax)
	movq	16(%rbp), %rax
	pxor	%xmm0, %xmm0
	movss	%xmm0, 24(%rax)
	movq	16(%rbp), %rax
	pxor	%xmm0, %xmm0
	movss	%xmm0, 28(%rax)
	movq	16(%rbp), %rax
	pxor	%xmm0, %xmm0
	movss	%xmm0, 32(%rax)
	movq	16(%rbp), %rax
	pxor	%xmm0, %xmm0
	movss	%xmm0, 36(%rax)
	movq	16(%rbp), %rax
	movss	.LC8(%rip), %xmm0
	movss	%xmm0, 40(%rax)
	movq	16(%rbp), %rax
	pxor	%xmm0, %xmm0
	movss	%xmm0, 44(%rax)
	movq	16(%rbp), %rax
	pxor	%xmm0, %xmm0
	movss	%xmm0, 48(%rax)
	movq	16(%rbp), %rax
	pxor	%xmm0, %xmm0
	movss	%xmm0, 52(%rax)
	movq	16(%rbp), %rax
	pxor	%xmm0, %xmm0
	movss	%xmm0, 56(%rax)
	movq	16(%rbp), %rax
	movss	.LC8(%rip), %xmm0
	movss	%xmm0, 60(%rax)
	.loc 9 58 45
	movss	32(%rbp), %xmm0
	movaps	%xmm0, %xmm6
	subss	24(%rbp), %xmm6
	.loc 9 58 9
	movl	$0, %edx
	movq	16(%rbp), %rcx
	call	_ZN3glm3matILi4ELi4EfLNS_9qualifierE0EEixEi
	.loc 9 58 12
	movl	$0, %edx
	movq	%rax, %rcx
	call	_ZN3glm3vecILi4EfLNS_9qualifierE0EEixEi
	.loc 9 58 36
	movss	.LC9(%rip), %xmm0
	divss	%xmm6, %xmm0
	.loc 9 58 3
	movss	%xmm0, (%rax)
	.loc 9 59 43
	movss	48(%rbp), %xmm0
	movaps	%xmm0, %xmm6
	subss	40(%rbp), %xmm6
	.loc 9 59 9
	movl	$1, %edx
	movq	16(%rbp), %rcx
	call	_ZN3glm3matILi4ELi4EfLNS_9qualifierE0EEixEi
	.loc 9 59 12
	movl	$1, %edx
	movq	%rax, %rcx
	call	_ZN3glm3vecILi4EfLNS_9qualifierE0EEixEi
	.loc 9 59 36
	movss	.LC9(%rip), %xmm0
	divss	%xmm6, %xmm0
	.loc 9 59 3
	movss	%xmm0, (%rax)
	.loc 9 60 46
	movss	64(%rbp), %xmm0
	movaps	%xmm0, %xmm6
	subss	56(%rbp), %xmm6
	.loc 9 60 9
	movl	$2, %edx
	movq	16(%rbp), %rcx
	call	_ZN3glm3matILi4ELi4EfLNS_9qualifierE0EEixEi
	.loc 9 60 12
	movl	$2, %edx
	movq	%rax, %rcx
	call	_ZN3glm3vecILi4EfLNS_9qualifierE0EEixEi
	.loc 9 60 38
	movss	.LC10(%rip), %xmm0
	divss	%xmm6, %xmm0
	.loc 9 60 3
	movss	%xmm0, (%rax)
	.loc 9 61 27
	movss	32(%rbp), %xmm0
	addss	24(%rbp), %xmm0
	.loc 9 61 35
	movss	.LC11(%rip), %xmm1
	movaps	%xmm0, %xmm6
	xorps	%xmm1, %xmm6
	.loc 9 61 44
	movss	32(%rbp), %xmm0
	movaps	%xmm0, %xmm7
	subss	24(%rbp), %xmm7
	.loc 9 61 9
	movl	$3, %edx
	movq	16(%rbp), %rcx
	call	_ZN3glm3matILi4ELi4EfLNS_9qualifierE0EEixEi
	.loc 9 61 12
	movl	$0, %edx
	movq	%rax, %rcx
	call	_ZN3glm3vecILi4EfLNS_9qualifierE0EEixEi
	.loc 9 61 35
	divss	%xmm7, %xmm6
	movaps	%xmm6, %xmm0
	.loc 9 61 3
	movss	%xmm0, (%rax)
	.loc 9 62 25
	movss	48(%rbp), %xmm0
	addss	40(%rbp), %xmm0
	.loc 9 62 35
	movss	.LC11(%rip), %xmm1
	movaps	%xmm0, %xmm6
	xorps	%xmm1, %xmm6
	.loc 9 62 42
	movss	48(%rbp), %xmm0
	movaps	%xmm0, %xmm7
	subss	40(%rbp), %xmm7
	.loc 9 62 9
	movl	$3, %edx
	movq	16(%rbp), %rcx
	call	_ZN3glm3matILi4ELi4EfLNS_9qualifierE0EEixEi
	.loc 9 62 12
	movl	$1, %edx
	movq	%rax, %rcx
	call	_ZN3glm3vecILi4EfLNS_9qualifierE0EEixEi
	.loc 9 62 35
	divss	%xmm7, %xmm6
	movaps	%xmm6, %xmm0
	.loc 9 62 3
	movss	%xmm0, (%rax)
	.loc 9 63 26
	movss	64(%rbp), %xmm0
	addss	56(%rbp), %xmm0
	.loc 9 63 35
	movss	.LC11(%rip), %xmm1
	movaps	%xmm0, %xmm6
	xorps	%xmm1, %xmm6
	.loc 9 63 43
	movss	64(%rbp), %xmm0
	movaps	%xmm0, %xmm7
	subss	56(%rbp), %xmm7
	.loc 9 63 9
	movl	$3, %edx
	movq	16(%rbp), %rcx
	call	_ZN3glm3matILi4ELi4EfLNS_9qualifierE0EEixEi
	.loc 9 63 12
	movl	$2, %edx
	movq	%rax, %rcx
	call	_ZN3glm3vecILi4EfLNS_9qualifierE0EEixEi
	.loc 9 63 35
	divss	%xmm7, %xmm6
	movaps	%xmm6, %xmm0
	.loc 9 63 3
	movss	%xmm0, (%rax)
	.loc 9 64 10
	nop
	.loc 9 65 2
	movq	16(%rbp), %rax
	movaps	-32(%rbp), %xmm6
	movaps	-16(%rbp), %xmm7
	addq	$64, %rsp
	.cfi_restore 24
	.cfi_restore 23
	popq	%rbp
	.cfi_restore 6
	.cfi_def_cfa 7, 8
	ret
	.cfi_endproc
.LFE5681:
	.seh_endproc
	.section	.text$_ZNKSt19__shared_ptr_accessIN12RenderEngine13ShaderProgramELN9__gnu_cxx12_Lock_policyE2ELb0ELb0EE6_M_getEv,"x"
	.linkonce discard
	.align 2
	.globl	_ZNKSt19__shared_ptr_accessIN12RenderEngine13ShaderProgramELN9__gnu_cxx12_Lock_policyE2ELb0ELb0EE6_M_getEv
	.def	_ZNKSt19__shared_ptr_accessIN12RenderEngine13ShaderProgramELN9__gnu_cxx12_Lock_policyE2ELb0ELb0EE6_M_getEv;	.scl	2;	.type	32;	.endef
	.seh_proc	_ZNKSt19__shared_ptr_accessIN12RenderEngine13ShaderProgramELN9__gnu_cxx12_Lock_policyE2ELb0ELb0EE6_M_getEv
_ZNKSt19__shared_ptr_accessIN12RenderEngine13ShaderProgramELN9__gnu_cxx12_Lock_policyE2ELb0ELb0EE6_M_getEv:
.LFB5697:
	.loc 5 1002 7
	.cfi_startproc
	pushq	%rbp
	.seh_pushreg	%rbp
	.cfi_def_cfa_offset 16
	.cfi_offset 6, -16
	movq	%rsp, %rbp
	.seh_setframe	%rbp, 0
	.cfi_def_cfa_register 6
	subq	$32, %rsp
	.seh_stackalloc	32
	.seh_endprologue
	movq	%rcx, 16(%rbp)
	.loc 5 1003 70
	movq	16(%rbp), %rcx
	call	_ZNKSt12__shared_ptrIN12RenderEngine13ShaderProgramELN9__gnu_cxx12_Lock_policyE2EE3getEv
	.loc 5 1003 73
	addq	$32, %rsp
	popq	%rbp
	.cfi_restore 6
	.cfi_def_cfa 7, 8
	ret
	.cfi_endproc
.LFE5697:
	.seh_endproc
	.section	.text$_ZNSaI5LevelEC1Ev,"x"
	.linkonce discard
	.align 2
	.globl	_ZNSaI5LevelEC1Ev
	.def	_ZNSaI5LevelEC1Ev;	.scl	2;	.type	32;	.endef
	.seh_proc	_ZNSaI5LevelEC1Ev
_ZNSaI5LevelEC1Ev:
.LFB5700:
	.loc 12 131 7
	.cfi_startproc
	pushq	%rbp
	.seh_pushreg	%rbp
	.cfi_def_cfa_offset 16
	.cfi_offset 6, -16
	movq	%rsp, %rbp
	.seh_setframe	%rbp, 0
	.cfi_def_cfa_register 6
	subq	$32, %rsp
	.seh_stackalloc	32
	.seh_endprologue
	movq	%rcx, 16(%rbp)
.LBB23:
	.loc 12 131 27
	movq	16(%rbp), %rcx
	call	_ZN9__gnu_cxx13new_allocatorI5LevelEC2Ev
.LBE23:
	.loc 12 131 29
	nop
	addq	$32, %rsp
	popq	%rbp
	.cfi_restore 6
	.cfi_def_cfa 7, 8
	ret
	.cfi_endproc
.LFE5700:
	.seh_endproc
	.section	.text$_ZNSaI5LevelED2Ev,"x"
	.linkonce discard
	.align 2
	.globl	_ZNSaI5LevelED2Ev
	.def	_ZNSaI5LevelED2Ev;	.scl	2;	.type	32;	.endef
	.seh_proc	_ZNSaI5LevelED2Ev
_ZNSaI5LevelED2Ev:
.LFB5702:
	.loc 12 139 7
	.cfi_startproc
	pushq	%rbp
	.seh_pushreg	%rbp
	.cfi_def_cfa_offset 16
	.cfi_offset 6, -16
	movq	%rsp, %rbp
	.seh_setframe	%rbp, 0
	.cfi_def_cfa_register 6
	subq	$32, %rsp
	.seh_stackalloc	32
	.seh_endprologue
	movq	%rcx, 16(%rbp)
.LBB24:
	.loc 12 139 30
	movq	16(%rbp), %rcx
	call	_ZN9__gnu_cxx13new_allocatorI5LevelED2Ev
.LBE24:
	nop
	addq	$32, %rsp
	popq	%rbp
	.cfi_restore 6
	.cfi_def_cfa 7, 8
	ret
	.cfi_endproc
.LFE5702:
	.seh_endproc
	.section	.text$_ZNSaI5LevelED1Ev,"x"
	.linkonce discard
	.align 2
	.globl	_ZNSaI5LevelED1Ev
	.def	_ZNSaI5LevelED1Ev;	.scl	2;	.type	32;	.endef
	.seh_proc	_ZNSaI5LevelED1Ev
_ZNSaI5LevelED1Ev:
.LFB5703:
	.loc 12 139 7
	.cfi_startproc
	pushq	%rbp
	.seh_pushreg	%rbp
	.cfi_def_cfa_offset 16
	.cfi_offset 6, -16
	movq	%rsp, %rbp
	.seh_setframe	%rbp, 0
	.cfi_def_cfa_register 6
	subq	$32, %rsp
	.seh_stackalloc	32
	.seh_endprologue
	movq	%rcx, 16(%rbp)
.LBB25:
	.loc 12 139 30
	movq	16(%rbp), %rcx
	call	_ZN9__gnu_cxx13new_allocatorI5LevelED2Ev
.LBE25:
	nop
	addq	$32, %rsp
	popq	%rbp
	.cfi_restore 6
	.cfi_def_cfa 7, 8
	ret
	.cfi_endproc
.LFE5703:
	.seh_endproc
	.section	.text$_ZSt15allocate_sharedI5LevelSaIS0_EJRKSt6vectorINSt7__cxx1112basic_stringIcSt11char_traitsIcESaIcEEESaIS8_EEEESt10shared_ptrIT_ERKT0_DpOT1_,"x"
	.linkonce discard
	.globl	_ZSt15allocate_sharedI5LevelSaIS0_EJRKSt6vectorINSt7__cxx1112basic_stringIcSt11char_traitsIcESaIcEEESaIS8_EEEESt10shared_ptrIT_ERKT0_DpOT1_
	.def	_ZSt15allocate_sharedI5LevelSaIS0_EJRKSt6vectorINSt7__cxx1112basic_stringIcSt11char_traitsIcESaIcEEESaIS8_EEEESt10shared_ptrIT_ERKT0_DpOT1_;	.scl	2;	.type	32;	.endef
	.seh_proc	_ZSt15allocate_sharedI5LevelSaIS0_EJRKSt6vectorINSt7__cxx1112basic_stringIcSt11char_traitsIcESaIcEEESaIS8_EEEESt10shared_ptrIT_ERKT0_DpOT1_
_ZSt15allocate_sharedI5LevelSaIS0_EJRKSt6vectorINSt7__cxx1112basic_stringIcSt11char_traitsIcESaIcEEESaIS8_EEEESt10shared_ptrIT_ERKT0_DpOT1_:
.LFB5704:
	.loc 6 704 5
	.cfi_startproc
	pushq	%rbp
	.seh_pushreg	%rbp
	.cfi_def_cfa_offset 16
	.cfi_offset 6, -16
	pushq	%rbx
	.seh_pushreg	%rbx
	.cfi_def_cfa_offset 24
	.cfi_offset 3, -24
	subq	$56, %rsp
	.seh_stackalloc	56
	.cfi_def_cfa_offset 80
	leaq	128(%rsp), %rbp
	.seh_setframe	%rbp, 128
	.cfi_def_cfa 6, -48
	.seh_endprologue
	movq	%rcx, -48(%rbp)
	movq	%rdx, -40(%rbp)
	movq	%r8, -32(%rbp)
	.loc 6 707 39
	movq	-32(%rbp), %rax
	movq	%rax, %rcx
	call	_ZSt7forwardIRKSt6vectorINSt7__cxx1112basic_stringIcSt11char_traitsIcESaIcEEESaIS6_EEEOT_RNSt16remove_referenceISB_E4typeE
	movq	%rax, %rdx
	movq	-40(%rbp), %rax
	movq	%rdx, %r9
	movq	%rax, %r8
	movl	%ebx, %edx
	movq	-48(%rbp), %rcx
	call	_ZNSt10shared_ptrI5LevelEC1ISaIS0_EJRKSt6vectorINSt7__cxx1112basic_stringIcSt11char_traitsIcESaIcEEESaISA_EEEEESt19_Sp_make_shared_tagRKT_DpOT0_
	.loc 6 708 5
	movq	-48(%rbp), %rax
	addq	$56, %rsp
	popq	%rbx
	.cfi_restore 3
	popq	%rbp
	.cfi_restore 6
	.cfi_def_cfa 7, -40
	ret
	.cfi_endproc
.LFE5704:
	.seh_endproc
	.section	.text$_ZNSt12__shared_ptrI10IGameStateLN9__gnu_cxx12_Lock_policyE2EEaSI5LevelEENSt9enable_ifIXsrSt20__sp_compatible_withIPT_PS0_E5valueERS3_E4typeERKS_IS8_LS2_2EE,"x"
	.linkonce discard
	.align 2
	.globl	_ZNSt12__shared_ptrI10IGameStateLN9__gnu_cxx12_Lock_policyE2EEaSI5LevelEENSt9enable_ifIXsrSt20__sp_compatible_withIPT_PS0_E5valueERS3_E4typeERKS_IS8_LS2_2EE
	.def	_ZNSt12__shared_ptrI10IGameStateLN9__gnu_cxx12_Lock_policyE2EEaSI5LevelEENSt9enable_ifIXsrSt20__sp_compatible_withIPT_PS0_E5valueERS3_E4typeERKS_IS8_LS2_2EE;	.scl	2;	.type	32;	.endef
	.seh_proc	_ZNSt12__shared_ptrI10IGameStateLN9__gnu_cxx12_Lock_policyE2EEaSI5LevelEENSt9enable_ifIXsrSt20__sp_compatible_withIPT_PS0_E5valueERS3_E4typeERKS_IS8_LS2_2EE
_ZNSt12__shared_ptrI10IGameStateLN9__gnu_cxx12_Lock_policyE2EEaSI5LevelEENSt9enable_ifIXsrSt20__sp_compatible_withIPT_PS0_E5valueERS3_E4typeERKS_IS8_LS2_2EE:
.LFB5709:
	.loc 5 1224 2
	.cfi_startproc
	pushq	%rbp
	.seh_pushreg	%rbp
	.cfi_def_cfa_offset 16
	.cfi_offset 6, -16
	movq	%rsp, %rbp
	.seh_setframe	%rbp, 0
	.cfi_def_cfa_register 6
	subq	$32, %rsp
	.seh_stackalloc	32
	.seh_endprologue
	movq	%rcx, 16(%rbp)
	movq	%rdx, 24(%rbp)
	.loc 5 1226 17
	movq	24(%rbp), %rax
	movq	(%rax), %rdx
	.loc 5 1226 4
	movq	16(%rbp), %rax
	movq	%rdx, (%rax)
	.loc 5 1227 22
	movq	24(%rbp), %rax
	leaq	8(%rax), %rdx
	.loc 5 1227 16
	movq	16(%rbp), %rax
	addq	$8, %rax
	movq	%rax, %rcx
	call	_ZNSt14__shared_countILN9__gnu_cxx12_Lock_policyE2EEaSERKS2_
	.loc 5 1228 12
	movq	16(%rbp), %rax
	.loc 5 1229 2
	addq	$32, %rsp
	popq	%rbp
	.cfi_restore 6
	.cfi_def_cfa 7, 8
	ret
	.cfi_endproc
.LFE5709:
	.seh_endproc
	.section	.text$_ZNSt16_Sp_counted_baseILN9__gnu_cxx12_Lock_policyE2EE15_M_add_ref_copyEv,"x"
	.linkonce discard
	.align 2
	.globl	_ZNSt16_Sp_counted_baseILN9__gnu_cxx12_Lock_policyE2EE15_M_add_ref_copyEv
	.def	_ZNSt16_Sp_counted_baseILN9__gnu_cxx12_Lock_policyE2EE15_M_add_ref_copyEv;	.scl	2;	.type	32;	.endef
	.seh_proc	_ZNSt16_Sp_counted_baseILN9__gnu_cxx12_Lock_policyE2EE15_M_add_ref_copyEv
_ZNSt16_Sp_counted_baseILN9__gnu_cxx12_Lock_policyE2EE15_M_add_ref_copyEv:
.LFB5710:
	.loc 5 144 7
	.cfi_startproc
	pushq	%rbp
	.seh_pushreg	%rbp
	.cfi_def_cfa_offset 16
	.cfi_offset 6, -16
	movq	%rsp, %rbp
	.seh_setframe	%rbp, 0
	.cfi_def_cfa_register 6
	subq	$32, %rsp
	.seh_stackalloc	32
	.seh_endprologue
	movq	%rcx, 16(%rbp)
	.loc 5 145 41
	movq	16(%rbp), %rax
	addq	$8, %rax
	movl	$1, %edx
	movq	%rax, %rcx
	call	_ZN9__gnu_cxxL21__atomic_add_dispatchEPii
	.loc 5 145 61
	nop
	addq	$32, %rsp
	popq	%rbp
	.cfi_restore 6
	.cfi_def_cfa 7, 8
	ret
	.cfi_endproc
.LFE5710:
	.seh_endproc
	.section	.text$_ZNSt14__shared_countILN9__gnu_cxx12_Lock_policyE2EEC1Ev,"x"
	.linkonce discard
	.align 2
	.globl	_ZNSt14__shared_countILN9__gnu_cxx12_Lock_policyE2EEC1Ev
	.def	_ZNSt14__shared_countILN9__gnu_cxx12_Lock_policyE2EEC1Ev;	.scl	2;	.type	32;	.endef
	.seh_proc	_ZNSt14__shared_countILN9__gnu_cxx12_Lock_policyE2EEC1Ev
_ZNSt14__shared_countILN9__gnu_cxx12_Lock_policyE2EEC1Ev:
.LFB5747:
	.loc 5 600 17
	.cfi_startproc
	pushq	%rbp
	.seh_pushreg	%rbp
	.cfi_def_cfa_offset 16
	.cfi_offset 6, -16
	movq	%rsp, %rbp
	.seh_setframe	%rbp, 0
	.cfi_def_cfa_register 6
	.seh_endprologue
	movq	%rcx, 16(%rbp)
.LBB26:
	.loc 5 600 52
	movq	16(%rbp), %rax
	movq	$0, (%rax)
.LBE26:
	.loc 5 601 9
	nop
	popq	%rbp
	.cfi_restore 6
	.cfi_def_cfa 7, 8
	ret
	.cfi_endproc
.LFE5747:
	.seh_endproc
	.section	.text$_ZNSt16_Sp_counted_baseILN9__gnu_cxx12_Lock_policyE2EE10_M_destroyEv,"x"
	.linkonce discard
	.align 2
	.globl	_ZNSt16_Sp_counted_baseILN9__gnu_cxx12_Lock_policyE2EE10_M_destroyEv
	.def	_ZNSt16_Sp_counted_baseILN9__gnu_cxx12_Lock_policyE2EE10_M_destroyEv;	.scl	2;	.type	32;	.endef
	.seh_proc	_ZNSt16_Sp_counted_baseILN9__gnu_cxx12_Lock_policyE2EE10_M_destroyEv
_ZNSt16_Sp_counted_baseILN9__gnu_cxx12_Lock_policyE2EE10_M_destroyEv:
.LFB5748:
	.loc 5 137 7
	.cfi_startproc
	pushq	%rbp
	.seh_pushreg	%rbp
	.cfi_def_cfa_offset 16
	.cfi_offset 6, -16
	movq	%rsp, %rbp
	.seh_setframe	%rbp, 0
	.cfi_def_cfa_register 6
	subq	$32, %rsp
	.seh_stackalloc	32
	.seh_endprologue
	movq	%rcx, 16(%rbp)
	.loc 5 138 9
	cmpq	$0, 16(%rbp)
	je	.L153
	.loc 5 138 9 is_stmt 0 discriminator 1
	movq	16(%rbp), %rax
	movq	(%rax), %rax
	addq	$8, %rax
	movq	(%rax), %rax
	movq	16(%rbp), %rcx
	call	*%rax
.LVL9:
.L153:
	.loc 5 138 22 is_stmt 1
	nop
	addq	$32, %rsp
	popq	%rbp
	.cfi_restore 6
	.cfi_def_cfa 7, 8
	ret
	.cfi_endproc
.LFE5748:
	.seh_endproc
	.section	.text$_ZNSt5arrayIbLy349EE4dataEv,"x"
	.linkonce discard
	.align 2
	.globl	_ZNSt5arrayIbLy349EE4dataEv
	.def	_ZNSt5arrayIbLy349EE4dataEv;	.scl	2;	.type	32;	.endef
	.seh_proc	_ZNSt5arrayIbLy349EE4dataEv
_ZNSt5arrayIbLy349EE4dataEv:
.LFB5749:
	.loc 8 234 7
	.cfi_startproc
	pushq	%rbp
	.seh_pushreg	%rbp
	.cfi_def_cfa_offset 16
	.cfi_offset 6, -16
	movq	%rsp, %rbp
	.seh_setframe	%rbp, 0
	.cfi_def_cfa_register 6
	subq	$32, %rsp
	.seh_stackalloc	32
	.seh_endprologue
	movq	%rcx, 16(%rbp)
	.loc 8 235 33
	movq	16(%rbp), %rax
	.loc 8 235 32
	movq	%rax, %rcx
	call	_ZNSt14__array_traitsIbLy349EE6_S_ptrERA349_Kb
	.loc 8 235 44
	addq	$32, %rsp
	popq	%rbp
	.cfi_restore 6
	.cfi_def_cfa 7, 8
	ret
	.cfi_endproc
.LFE5749:
	.seh_endproc
	.section	.text$_ZSt12__niter_baseIPbET_S1_,"x"
	.linkonce discard
	.globl	_ZSt12__niter_baseIPbET_S1_
	.def	_ZSt12__niter_baseIPbET_S1_;	.scl	2;	.type	32;	.endef
	.seh_proc	_ZSt12__niter_baseIPbET_S1_
_ZSt12__niter_baseIPbET_S1_:
.LFB5750:
	.loc 11 277 5
	.cfi_startproc
	pushq	%rbp
	.seh_pushreg	%rbp
	.cfi_def_cfa_offset 16
	.cfi_offset 6, -16
	movq	%rsp, %rbp
	.seh_setframe	%rbp, 0
	.cfi_def_cfa_register 6
	.seh_endprologue
	movq	%rcx, 16(%rbp)
	.loc 11 278 14
	movq	16(%rbp), %rax
	.loc 11 278 20
	popq	%rbp
	.cfi_restore 6
	.cfi_def_cfa 7, 8
	ret
	.cfi_endproc
.LFE5750:
	.seh_endproc
	.section	.text$_ZSt10__fill_n_aIPbybEN9__gnu_cxx11__enable_ifIXsrSt11__is_scalarIT1_E7__valueET_E6__typeES6_T0_RKS4_,"x"
	.linkonce discard
	.globl	_ZSt10__fill_n_aIPbybEN9__gnu_cxx11__enable_ifIXsrSt11__is_scalarIT1_E7__valueET_E6__typeES6_T0_RKS4_
	.def	_ZSt10__fill_n_aIPbybEN9__gnu_cxx11__enable_ifIXsrSt11__is_scalarIT1_E7__valueET_E6__typeES6_T0_RKS4_;	.scl	2;	.type	32;	.endef
	.seh_proc	_ZSt10__fill_n_aIPbybEN9__gnu_cxx11__enable_ifIXsrSt11__is_scalarIT1_E7__valueET_E6__typeES6_T0_RKS4_
_ZSt10__fill_n_aIPbybEN9__gnu_cxx11__enable_ifIXsrSt11__is_scalarIT1_E7__valueET_E6__typeES6_T0_RKS4_:
.LFB5751:
	.loc 11 749 5
	.cfi_startproc
	pushq	%rbp
	.seh_pushreg	%rbp
	.cfi_def_cfa_offset 16
	.cfi_offset 6, -16
	movq	%rsp, %rbp
	.seh_setframe	%rbp, 0
	.cfi_def_cfa_register 6
	subq	$16, %rsp
	.seh_stackalloc	16
	.seh_endprologue
	movq	%rcx, 16(%rbp)
	movq	%rdx, 24(%rbp)
	movq	%r8, 32(%rbp)
	.loc 11 751 17
	movq	32(%rbp), %rax
	movzbl	(%rax), %eax
	movb	%al, -9(%rbp)
.LBB27:
	.loc 11 752 32
	movq	24(%rbp), %rax
	movq	%rax, -8(%rbp)
.L160:
	.loc 11 753 13
	cmpq	$0, -8(%rbp)
	je	.L159
	.loc 11 754 2
	movq	16(%rbp), %rdx
	movzbl	-9(%rbp), %eax
	movb	%al, (%rdx)
	.loc 11 752 7
	subq	$1, -8(%rbp)
	addq	$1, 16(%rbp)
	jmp	.L160
.L159:
.LBE27:
	.loc 11 755 14
	movq	16(%rbp), %rax
	.loc 11 756 5
	addq	$16, %rsp
	popq	%rbp
	.cfi_restore 6
	.cfi_def_cfa 7, 8
	ret
	.cfi_endproc
.LFE5751:
	.seh_endproc
	.section	.text$_ZNKSt12__shared_ptrI10IGameStateLN9__gnu_cxx12_Lock_policyE2EE3getEv,"x"
	.linkonce discard
	.align 2
	.globl	_ZNKSt12__shared_ptrI10IGameStateLN9__gnu_cxx12_Lock_policyE2EE3getEv
	.def	_ZNKSt12__shared_ptrI10IGameStateLN9__gnu_cxx12_Lock_policyE2EE3getEv;	.scl	2;	.type	32;	.endef
	.seh_proc	_ZNKSt12__shared_ptrI10IGameStateLN9__gnu_cxx12_Lock_policyE2EE3getEv
_ZNKSt12__shared_ptrI10IGameStateLN9__gnu_cxx12_Lock_policyE2EE3getEv:
.LFB5752:
	.loc 5 1291 7
	.cfi_startproc
	pushq	%rbp
	.seh_pushreg	%rbp
	.cfi_def_cfa_offset 16
	.cfi_offset 6, -16
	movq	%rsp, %rbp
	.seh_setframe	%rbp, 0
	.cfi_def_cfa_register 6
	.seh_endprologue
	movq	%rcx, 16(%rbp)
	.loc 5 1292 16
	movq	16(%rbp), %rax
	movq	(%rax), %rax
	.loc 5 1292 24
	popq	%rbp
	.cfi_restore 6
	.cfi_def_cfa 7, 8
	ret
	.cfi_endproc
.LFE5752:
	.seh_endproc
	.section	.text$_ZNSt14__shared_countILN9__gnu_cxx12_Lock_policyE2EE7_M_swapERS2_,"x"
	.linkonce discard
	.align 2
	.globl	_ZNSt14__shared_countILN9__gnu_cxx12_Lock_policyE2EE7_M_swapERS2_
	.def	_ZNSt14__shared_countILN9__gnu_cxx12_Lock_policyE2EE7_M_swapERS2_;	.scl	2;	.type	32;	.endef
	.seh_proc	_ZNSt14__shared_countILN9__gnu_cxx12_Lock_policyE2EE7_M_swapERS2_
_ZNSt14__shared_countILN9__gnu_cxx12_Lock_policyE2EE7_M_swapERS2_:
.LFB5753:
	.loc 5 738 7
	.cfi_startproc
	pushq	%rbp
	.seh_pushreg	%rbp
	.cfi_def_cfa_offset 16
	.cfi_offset 6, -16
	movq	%rsp, %rbp
	.seh_setframe	%rbp, 0
	.cfi_def_cfa_register 6
	subq	$16, %rsp
	.seh_stackalloc	16
	.seh_endprologue
	movq	%rcx, 16(%rbp)
	movq	%rdx, 24(%rbp)
	.loc 5 740 25
	movq	24(%rbp), %rax
	movq	(%rax), %rax
	movq	%rax, -8(%rbp)
	.loc 5 741 14
	movq	16(%rbp), %rax
	movq	(%rax), %rdx
	.loc 5 741 2
	movq	24(%rbp), %rax
	movq	%rdx, (%rax)
	.loc 5 742 2
	movq	16(%rbp), %rax
	movq	-8(%rbp), %rdx
	movq	%rdx, (%rax)
	.loc 5 743 7
	nop
	addq	$16, %rsp
	popq	%rbp
	.cfi_restore 6
	.cfi_def_cfa 7, 8
	ret
	.cfi_endproc
.LFE5753:
	.seh_endproc
	.section	.text$_ZN9__gnu_cxx13new_allocatorI11StartScreenEC2Ev,"x"
	.linkonce discard
	.align 2
	.globl	_ZN9__gnu_cxx13new_allocatorI11StartScreenEC2Ev
	.def	_ZN9__gnu_cxx13new_allocatorI11StartScreenEC2Ev;	.scl	2;	.type	32;	.endef
	.seh_proc	_ZN9__gnu_cxx13new_allocatorI11StartScreenEC2Ev
_ZN9__gnu_cxx13new_allocatorI11StartScreenEC2Ev:
.LFB5757:
	.file 14 "C:/Program Files/CodeBlocks/MinGW/lib/gcc/x86_64-w64-mingw32/8.1.0/include/c++/ext/new_allocator.h"
	.loc 14 79 7
	.cfi_startproc
	pushq	%rbp
	.seh_pushreg	%rbp
	.cfi_def_cfa_offset 16
	.cfi_offset 6, -16
	movq	%rsp, %rbp
	.seh_setframe	%rbp, 0
	.cfi_def_cfa_register 6
	.seh_endprologue
	movq	%rcx, 16(%rbp)
	.loc 14 79 34
	nop
	popq	%rbp
	.cfi_restore 6
	.cfi_def_cfa 7, 8
	ret
	.cfi_endproc
.LFE5757:
	.seh_endproc
	.section	.text$_ZN9__gnu_cxx13new_allocatorI11StartScreenED2Ev,"x"
	.linkonce discard
	.align 2
	.globl	_ZN9__gnu_cxx13new_allocatorI11StartScreenED2Ev
	.def	_ZN9__gnu_cxx13new_allocatorI11StartScreenED2Ev;	.scl	2;	.type	32;	.endef
	.seh_proc	_ZN9__gnu_cxx13new_allocatorI11StartScreenED2Ev
_ZN9__gnu_cxx13new_allocatorI11StartScreenED2Ev:
.LFB5760:
	.loc 14 86 7
	.cfi_startproc
	pushq	%rbp
	.seh_pushreg	%rbp
	.cfi_def_cfa_offset 16
	.cfi_offset 6, -16
	movq	%rsp, %rbp
	.seh_setframe	%rbp, 0
	.cfi_def_cfa_register 6
	.seh_endprologue
	movq	%rcx, 16(%rbp)
	.loc 14 86 35
	nop
	popq	%rbp
	.cfi_restore 6
	.cfi_def_cfa 7, 8
	ret
	.cfi_endproc
.LFE5760:
	.seh_endproc
	.section	.text$_ZNSt10shared_ptrI11StartScreenEC1ISaIS0_EJRKSt6vectorINSt7__cxx1112basic_stringIcSt11char_traitsIcESaIcEEESaISA_EEEEESt19_Sp_make_shared_tagRKT_DpOT0_,"x"
	.linkonce discard
	.align 2
	.globl	_ZNSt10shared_ptrI11StartScreenEC1ISaIS0_EJRKSt6vectorINSt7__cxx1112basic_stringIcSt11char_traitsIcESaIcEEESaISA_EEEEESt19_Sp_make_shared_tagRKT_DpOT0_
	.def	_ZNSt10shared_ptrI11StartScreenEC1ISaIS0_EJRKSt6vectorINSt7__cxx1112basic_stringIcSt11char_traitsIcESaIcEEESaISA_EEEEESt19_Sp_make_shared_tagRKT_DpOT0_;	.scl	2;	.type	32;	.endef
	.seh_proc	_ZNSt10shared_ptrI11StartScreenEC1ISaIS0_EJRKSt6vectorINSt7__cxx1112basic_stringIcSt11char_traitsIcESaIcEEESaISA_EEEEESt19_Sp_make_shared_tagRKT_DpOT0_
_ZNSt10shared_ptrI11StartScreenEC1ISaIS0_EJRKSt6vectorINSt7__cxx1112basic_stringIcSt11char_traitsIcESaIcEEESaISA_EEEEESt19_Sp_make_shared_tagRKT_DpOT0_:
.LFB5764:
	.loc 6 358 2
	.cfi_startproc
	pushq	%rbp
	.seh_pushreg	%rbp
	.cfi_def_cfa_offset 16
	.cfi_offset 6, -16
	pushq	%rsi
	.seh_pushreg	%rsi
	.cfi_def_cfa_offset 24
	.cfi_offset 4, -24
	pushq	%rbx
	.seh_pushreg	%rbx
	.cfi_def_cfa_offset 32
	.cfi_offset 3, -32
	movq	%rsp, %rbp
	.seh_setframe	%rbp, 0
	.cfi_def_cfa_register 6
	subq	$32, %rsp
	.seh_stackalloc	32
	.seh_endprologue
	movq	%rcx, 32(%rbp)
	movb	%dl, 40(%rbp)
	movq	%r8, 40(%rbp)
	movq	%r9, 48(%rbp)
.LBB28:
	.loc 6 360 64
	movq	32(%rbp), %rbx
	movq	48(%rbp), %rax
	movq	%rax, %rcx
	call	_ZSt7forwardIRKSt6vectorINSt7__cxx1112basic_stringIcSt11char_traitsIcESaIcEEESaIS6_EEEOT_RNSt16remove_referenceISB_E4typeE
	movq	%rax, %rdx
	movq	40(%rbp), %rax
	movq	%rdx, %r9
	movq	%rax, %r8
	movl	%esi, %edx
	movq	%rbx, %rcx
	call	_ZNSt12__shared_ptrI11StartScreenLN9__gnu_cxx12_Lock_policyE2EEC2ISaIS0_EJRKSt6vectorINSt7__cxx1112basic_stringIcSt11char_traitsIcESaIcEEESaISC_EEEEESt19_Sp_make_shared_tagRKT_DpOT0_
.LBE28:
	.loc 6 361 4
	nop
	addq	$32, %rsp
	popq	%rbx
	.cfi_restore 3
	popq	%rsi
	.cfi_restore 4
	popq	%rbp
	.cfi_restore 6
	.cfi_def_cfa 7, 24
	ret
	.cfi_endproc
.LFE5764:
	.seh_endproc
	.section	.text$_ZSt4moveIRSt12__shared_ptrI11StartScreenLN9__gnu_cxx12_Lock_policyE2EEEONSt16remove_referenceIT_E4typeEOS7_,"x"
	.linkonce discard
	.globl	_ZSt4moveIRSt12__shared_ptrI11StartScreenLN9__gnu_cxx12_Lock_policyE2EEEONSt16remove_referenceIT_E4typeEOS7_
	.def	_ZSt4moveIRSt12__shared_ptrI11StartScreenLN9__gnu_cxx12_Lock_policyE2EEEONSt16remove_referenceIT_E4typeEOS7_;	.scl	2;	.type	32;	.endef
	.seh_proc	_ZSt4moveIRSt12__shared_ptrI11StartScreenLN9__gnu_cxx12_Lock_policyE2EEEONSt16remove_referenceIT_E4typeEOS7_
_ZSt4moveIRSt12__shared_ptrI11StartScreenLN9__gnu_cxx12_Lock_policyE2EEEONSt16remove_referenceIT_E4typeEOS7_:
.LFB5768:
	.loc 13 99 5
	.cfi_startproc
	pushq	%rbp
	.seh_pushreg	%rbp
	.cfi_def_cfa_offset 16
	.cfi_offset 6, -16
	movq	%rsp, %rbp
	.seh_setframe	%rbp, 0
	.cfi_def_cfa_register 6
	.seh_endprologue
	movq	%rcx, 16(%rbp)
	.loc 13 100 74
	movq	16(%rbp), %rax
	.loc 13 100 77
	popq	%rbp
	.cfi_restore 6
	.cfi_def_cfa 7, 8
	ret
	.cfi_endproc
.LFE5768:
	.seh_endproc
	.section	.text$_ZNSt12__shared_ptrI10IGameStateLN9__gnu_cxx12_Lock_policyE2EEC1I11StartScreenvEEOS_IT_LS2_2EE,"x"
	.linkonce discard
	.align 2
	.globl	_ZNSt12__shared_ptrI10IGameStateLN9__gnu_cxx12_Lock_policyE2EEC1I11StartScreenvEEOS_IT_LS2_2EE
	.def	_ZNSt12__shared_ptrI10IGameStateLN9__gnu_cxx12_Lock_policyE2EEC1I11StartScreenvEEOS_IT_LS2_2EE;	.scl	2;	.type	32;	.endef
	.seh_proc	_ZNSt12__shared_ptrI10IGameStateLN9__gnu_cxx12_Lock_policyE2EEC1I11StartScreenvEEOS_IT_LS2_2EE
_ZNSt12__shared_ptrI10IGameStateLN9__gnu_cxx12_Lock_policyE2EEC1I11StartScreenvEEOS_IT_LS2_2EE:
.LFB5771:
	.loc 5 1166 2
	.cfi_startproc
	pushq	%rbp
	.seh_pushreg	%rbp
	.cfi_def_cfa_offset 16
	.cfi_offset 6, -16
	movq	%rsp, %rbp
	.seh_setframe	%rbp, 0
	.cfi_def_cfa_register 6
	subq	$32, %rsp
	.seh_stackalloc	32
	.seh_endprologue
	movq	%rcx, 16(%rbp)
	movq	%rdx, 24(%rbp)
.LBB29:
	.loc 5 1167 15
	movq	24(%rbp), %rax
	movq	(%rax), %rdx
	.loc 5 1167 36
	movq	16(%rbp), %rax
	movq	%rdx, (%rax)
	movq	16(%rbp), %rax
	addq	$8, %rax
	movq	%rax, %rcx
	call	_ZNSt14__shared_countILN9__gnu_cxx12_Lock_policyE2EEC1Ev
	.loc 5 1169 4
	movq	16(%rbp), %rax
	addq	$8, %rax
	.loc 5 1169 28
	movq	24(%rbp), %rdx
	addq	$8, %rdx
	.loc 5 1169 4
	movq	%rax, %rcx
	call	_ZNSt14__shared_countILN9__gnu_cxx12_Lock_policyE2EE7_M_swapERS2_
	.loc 5 1170 4
	movq	24(%rbp), %rax
	movq	$0, (%rax)
.LBE29:
	.loc 5 1171 2
	nop
	addq	$32, %rsp
	popq	%rbp
	.cfi_restore 6
	.cfi_def_cfa 7, 8
	ret
	.cfi_endproc
.LFE5771:
	.seh_endproc
	.section	.text$_ZNSt12__shared_ptrI10IGameStateLN9__gnu_cxx12_Lock_policyE2EE4swapERS3_,"x"
	.linkonce discard
	.align 2
	.globl	_ZNSt12__shared_ptrI10IGameStateLN9__gnu_cxx12_Lock_policyE2EE4swapERS3_
	.def	_ZNSt12__shared_ptrI10IGameStateLN9__gnu_cxx12_Lock_policyE2EE4swapERS3_;	.scl	2;	.type	32;	.endef
	.seh_proc	_ZNSt12__shared_ptrI10IGameStateLN9__gnu_cxx12_Lock_policyE2EE4swapERS3_
_ZNSt12__shared_ptrI10IGameStateLN9__gnu_cxx12_Lock_policyE2EE4swapERS3_:
.LFB5772:
	.loc 5 1306 7
	.cfi_startproc
	pushq	%rbp
	.seh_pushreg	%rbp
	.cfi_def_cfa_offset 16
	.cfi_offset 6, -16
	movq	%rsp, %rbp
	.seh_setframe	%rbp, 0
	.cfi_def_cfa_register 6
	subq	$32, %rsp
	.seh_stackalloc	32
	.seh_endprologue
	movq	%rcx, 16(%rbp)
	movq	%rdx, 24(%rbp)
	.loc 5 1308 28
	movq	24(%rbp), %rdx
	.loc 5 1308 12
	movq	16(%rbp), %rax
	.loc 5 1308 11
	movq	%rax, %rcx
	call	_ZSt4swapIP10IGameStateENSt9enable_ifIXsrSt6__and_IJSt6__not_ISt15__is_tuple_likeIT_EESt21is_move_constructibleIS6_ESt18is_move_assignableIS6_EEE5valueEvE4typeERS6_SG_
	.loc 5 1309 2
	movq	16(%rbp), %rax
	addq	$8, %rax
	.loc 5 1309 30
	movq	24(%rbp), %rdx
	addq	$8, %rdx
	.loc 5 1309 2
	movq	%rax, %rcx
	call	_ZNSt14__shared_countILN9__gnu_cxx12_Lock_policyE2EE7_M_swapERS2_
	.loc 5 1310 7
	nop
	addq	$32, %rsp
	popq	%rbp
	.cfi_restore 6
	.cfi_def_cfa 7, 8
	ret
	.cfi_endproc
.LFE5772:
	.seh_endproc
	.section .rdata,"dr"
	.align 8
.LC12:
	.ascii "N:/CPP_prj/SimpleCoding/BattleCity/external/glm/glm/detail/type_mat4x4.inl\0"
.LC13:
	.ascii "i < this->length()\0"
	.section	.text$_ZN3glm3matILi4ELi4EfLNS_9qualifierE0EEixEi,"x"
	.linkonce discard
	.align 2
	.globl	_ZN3glm3matILi4ELi4EfLNS_9qualifierE0EEixEi
	.def	_ZN3glm3matILi4ELi4EfLNS_9qualifierE0EEixEi;	.scl	2;	.type	32;	.endef
	.seh_proc	_ZN3glm3matILi4ELi4EfLNS_9qualifierE0EEixEi
_ZN3glm3matILi4ELi4EfLNS_9qualifierE0EEixEi:
.LFB5773:
	.file 15 "N:/CPP_prj/SimpleCoding/BattleCity/external/glm/glm/detail/type_mat4x4.inl"
	.loc 15 289 46
	.cfi_startproc
	pushq	%rbp
	.seh_pushreg	%rbp
	.cfi_def_cfa_offset 16
	.cfi_offset 6, -16
	movq	%rsp, %rbp
	.seh_setframe	%rbp, 0
	.cfi_def_cfa_register 6
	subq	$32, %rsp
	.seh_stackalloc	32
	.seh_endprologue
	movq	%rcx, 16(%rbp)
	movl	%edx, 24(%rbp)
	.loc 15 291 18
	call	_ZN3glm3matILi4ELi4EfLNS_9qualifierE0EE6lengthEv
	.loc 15 291 2
	cmpl	%eax, 24(%rbp)
	jl	.L175
	.loc 15 291 16 discriminator 2
	movl	$291, %r8d
	leaq	.LC12(%rip), %rdx
	leaq	.LC13(%rip), %rcx
	movq	__imp__assert(%rip), %rax
	call	*%rax
.LVL10:
.L175:
	.loc 15 292 23
	movl	24(%rbp), %eax
	cltq
	salq	$4, %rax
	movq	%rax, %rdx
	movq	16(%rbp), %rax
	addq	%rdx, %rax
	.loc 15 293 2
	addq	$32, %rsp
	popq	%rbp
	.cfi_restore 6
	.cfi_def_cfa 7, 8
	ret
	.cfi_endproc
.LFE5773:
	.seh_endproc
	.section .rdata,"dr"
	.align 8
.LC14:
	.ascii "N:/CPP_prj/SimpleCoding/BattleCity/external/glm/glm/detail/type_vec4.inl\0"
.LC15:
	.ascii "i >= 0 && i < this->length()\0"
	.section	.text$_ZN3glm3vecILi4EfLNS_9qualifierE0EEixEi,"x"
	.linkonce discard
	.align 2
	.globl	_ZN3glm3vecILi4EfLNS_9qualifierE0EEixEi
	.def	_ZN3glm3vecILi4EfLNS_9qualifierE0EEixEi;	.scl	2;	.type	32;	.endef
	.seh_proc	_ZN3glm3vecILi4EfLNS_9qualifierE0EEixEi
_ZN3glm3vecILi4EfLNS_9qualifierE0EEixEi:
.LFB5774:
	.file 16 "N:/CPP_prj/SimpleCoding/BattleCity/external/glm/glm/detail/type_vec4.inl"
	.loc 16 477 22
	.cfi_startproc
	pushq	%rbp
	.seh_pushreg	%rbp
	.cfi_def_cfa_offset 16
	.cfi_offset 6, -16
	movq	%rsp, %rbp
	.seh_setframe	%rbp, 0
	.cfi_def_cfa_register 6
	subq	$32, %rsp
	.seh_stackalloc	32
	.seh_endprologue
	movq	%rcx, 16(%rbp)
	movl	%edx, 24(%rbp)
	.loc 16 479 2
	cmpl	$0, 24(%rbp)
	js	.L178
	.loc 16 479 28 discriminator 1
	call	_ZN3glm3vecILi4EfLNS_9qualifierE0EE6lengthEv
	.loc 16 479 11 discriminator 1
	cmpl	%eax, 24(%rbp)
	jl	.L186
.L178:
	.loc 16 479 16 discriminator 4
	movl	$479, %r8d
	leaq	.LC14(%rip), %rdx
	leaq	.LC15(%rip), %rcx
	movq	__imp__assert(%rip), %rax
	call	*%rax
.LVL11:
	jmp	.L181
.L186:
	.loc 16 479 2
	nop
.L181:
	cmpl	$2, 24(%rbp)
	je	.L182
	cmpl	$3, 24(%rbp)
	je	.L183
	cmpl	$1, 24(%rbp)
	je	.L184
	.loc 16 484 11
	movq	16(%rbp), %rax
	jmp	.L185
.L184:
	.loc 16 486 11
	movq	16(%rbp), %rax
	addq	$4, %rax
	jmp	.L185
.L182:
	.loc 16 488 11
	movq	16(%rbp), %rax
	addq	$8, %rax
	jmp	.L185
.L183:
	.loc 16 490 11
	movq	16(%rbp), %rax
	addq	$12, %rax
.L185:
	.loc 16 492 2
	addq	$32, %rsp
	popq	%rbp
	.cfi_restore 6
	.cfi_def_cfa 7, 8
	ret
	.cfi_endproc
.LFE5774:
	.seh_endproc
	.section	.text$_ZNKSt12__shared_ptrIN12RenderEngine13ShaderProgramELN9__gnu_cxx12_Lock_policyE2EE3getEv,"x"
	.linkonce discard
	.align 2
	.globl	_ZNKSt12__shared_ptrIN12RenderEngine13ShaderProgramELN9__gnu_cxx12_Lock_policyE2EE3getEv
	.def	_ZNKSt12__shared_ptrIN12RenderEngine13ShaderProgramELN9__gnu_cxx12_Lock_policyE2EE3getEv;	.scl	2;	.type	32;	.endef
	.seh_proc	_ZNKSt12__shared_ptrIN12RenderEngine13ShaderProgramELN9__gnu_cxx12_Lock_policyE2EE3getEv
_ZNKSt12__shared_ptrIN12RenderEngine13ShaderProgramELN9__gnu_cxx12_Lock_policyE2EE3getEv:
.LFB5775:
	.loc 5 1291 7
	.cfi_startproc
	pushq	%rbp
	.seh_pushreg	%rbp
	.cfi_def_cfa_offset 16
	.cfi_offset 6, -16
	movq	%rsp, %rbp
	.seh_setframe	%rbp, 0
	.cfi_def_cfa_register 6
	.seh_endprologue
	movq	%rcx, 16(%rbp)
	.loc 5 1292 16
	movq	16(%rbp), %rax
	movq	(%rax), %rax
	.loc 5 1292 24
	popq	%rbp
	.cfi_restore 6
	.cfi_def_cfa 7, 8
	ret
	.cfi_endproc
.LFE5775:
	.seh_endproc
	.section	.text$_ZN9__gnu_cxx13new_allocatorI5LevelEC2Ev,"x"
	.linkonce discard
	.align 2
	.globl	_ZN9__gnu_cxx13new_allocatorI5LevelEC2Ev
	.def	_ZN9__gnu_cxx13new_allocatorI5LevelEC2Ev;	.scl	2;	.type	32;	.endef
	.seh_proc	_ZN9__gnu_cxx13new_allocatorI5LevelEC2Ev
_ZN9__gnu_cxx13new_allocatorI5LevelEC2Ev:
.LFB5777:
	.loc 14 79 7
	.cfi_startproc
	pushq	%rbp
	.seh_pushreg	%rbp
	.cfi_def_cfa_offset 16
	.cfi_offset 6, -16
	movq	%rsp, %rbp
	.seh_setframe	%rbp, 0
	.cfi_def_cfa_register 6
	.seh_endprologue
	movq	%rcx, 16(%rbp)
	.loc 14 79 34
	nop
	popq	%rbp
	.cfi_restore 6
	.cfi_def_cfa 7, 8
	ret
	.cfi_endproc
.LFE5777:
	.seh_endproc
	.section	.text$_ZN9__gnu_cxx13new_allocatorI5LevelED2Ev,"x"
	.linkonce discard
	.align 2
	.globl	_ZN9__gnu_cxx13new_allocatorI5LevelED2Ev
	.def	_ZN9__gnu_cxx13new_allocatorI5LevelED2Ev;	.scl	2;	.type	32;	.endef
	.seh_proc	_ZN9__gnu_cxx13new_allocatorI5LevelED2Ev
_ZN9__gnu_cxx13new_allocatorI5LevelED2Ev:
.LFB5780:
	.loc 14 86 7
	.cfi_startproc
	pushq	%rbp
	.seh_pushreg	%rbp
	.cfi_def_cfa_offset 16
	.cfi_offset 6, -16
	movq	%rsp, %rbp
	.seh_setframe	%rbp, 0
	.cfi_def_cfa_register 6
	.seh_endprologue
	movq	%rcx, 16(%rbp)
	.loc 14 86 35
	nop
	popq	%rbp
	.cfi_restore 6
	.cfi_def_cfa 7, 8
	ret
	.cfi_endproc
.LFE5780:
	.seh_endproc
	.section	.text$_ZNSt10shared_ptrI5LevelEC1ISaIS0_EJRKSt6vectorINSt7__cxx1112basic_stringIcSt11char_traitsIcESaIcEEESaISA_EEEEESt19_Sp_make_shared_tagRKT_DpOT0_,"x"
	.linkonce discard
	.align 2
	.globl	_ZNSt10shared_ptrI5LevelEC1ISaIS0_EJRKSt6vectorINSt7__cxx1112basic_stringIcSt11char_traitsIcESaIcEEESaISA_EEEEESt19_Sp_make_shared_tagRKT_DpOT0_
	.def	_ZNSt10shared_ptrI5LevelEC1ISaIS0_EJRKSt6vectorINSt7__cxx1112basic_stringIcSt11char_traitsIcESaIcEEESaISA_EEEEESt19_Sp_make_shared_tagRKT_DpOT0_;	.scl	2;	.type	32;	.endef
	.seh_proc	_ZNSt10shared_ptrI5LevelEC1ISaIS0_EJRKSt6vectorINSt7__cxx1112basic_stringIcSt11char_traitsIcESaIcEEESaISA_EEEEESt19_Sp_make_shared_tagRKT_DpOT0_
_ZNSt10shared_ptrI5LevelEC1ISaIS0_EJRKSt6vectorINSt7__cxx1112basic_stringIcSt11char_traitsIcESaIcEEESaISA_EEEEESt19_Sp_make_shared_tagRKT_DpOT0_:
.LFB5784:
	.loc 6 358 2
	.cfi_startproc
	pushq	%rbp
	.seh_pushreg	%rbp
	.cfi_def_cfa_offset 16
	.cfi_offset 6, -16
	pushq	%rsi
	.seh_pushreg	%rsi
	.cfi_def_cfa_offset 24
	.cfi_offset 4, -24
	pushq	%rbx
	.seh_pushreg	%rbx
	.cfi_def_cfa_offset 32
	.cfi_offset 3, -32
	movq	%rsp, %rbp
	.seh_setframe	%rbp, 0
	.cfi_def_cfa_register 6
	subq	$32, %rsp
	.seh_stackalloc	32
	.seh_endprologue
	movq	%rcx, 32(%rbp)
	movb	%dl, 40(%rbp)
	movq	%r8, 40(%rbp)
	movq	%r9, 48(%rbp)
.LBB30:
	.loc 6 360 64
	movq	32(%rbp), %rbx
	movq	48(%rbp), %rax
	movq	%rax, %rcx
	call	_ZSt7forwardIRKSt6vectorINSt7__cxx1112basic_stringIcSt11char_traitsIcESaIcEEESaIS6_EEEOT_RNSt16remove_referenceISB_E4typeE
	movq	%rax, %rdx
	movq	40(%rbp), %rax
	movq	%rdx, %r9
	movq	%rax, %r8
	movl	%esi, %edx
	movq	%rbx, %rcx
	call	_ZNSt12__shared_ptrI5LevelLN9__gnu_cxx12_Lock_policyE2EEC2ISaIS0_EJRKSt6vectorINSt7__cxx1112basic_stringIcSt11char_traitsIcESaIcEEESaISC_EEEEESt19_Sp_make_shared_tagRKT_DpOT0_
.LBE30:
	.loc 6 361 4
	nop
	addq	$32, %rsp
	popq	%rbx
	.cfi_restore 3
	popq	%rsi
	.cfi_restore 4
	popq	%rbp
	.cfi_restore 6
	.cfi_def_cfa 7, 24
	ret
	.cfi_endproc
.LFE5784:
	.seh_endproc
	.section	.text$_ZNSt14__shared_countILN9__gnu_cxx12_Lock_policyE2EEaSERKS2_,"x"
	.linkonce discard
	.align 2
	.globl	_ZNSt14__shared_countILN9__gnu_cxx12_Lock_policyE2EEaSERKS2_
	.def	_ZNSt14__shared_countILN9__gnu_cxx12_Lock_policyE2EEaSERKS2_;	.scl	2;	.type	32;	.endef
	.seh_proc	_ZNSt14__shared_countILN9__gnu_cxx12_Lock_policyE2EEaSERKS2_
_ZNSt14__shared_countILN9__gnu_cxx12_Lock_policyE2EEaSERKS2_:
.LFB5785:
	.loc 5 723 7
	.cfi_startproc
	pushq	%rbp
	.seh_pushreg	%rbp
	.cfi_def_cfa_offset 16
	.cfi_offset 6, -16
	movq	%rsp, %rbp
	.seh_setframe	%rbp, 0
	.cfi_def_cfa_register 6
	subq	$48, %rsp
	.seh_stackalloc	48
	.seh_endprologue
	movq	%rcx, 16(%rbp)
	movq	%rdx, 24(%rbp)
	.loc 5 725 25
	movq	24(%rbp), %rax
	movq	(%rax), %rax
	movq	%rax, -8(%rbp)
	.loc 5 726 15
	movq	16(%rbp), %rax
	movq	(%rax), %rax
	.loc 5 726 2
	cmpq	%rax, -8(%rbp)
	je	.L193
	.loc 5 728 6
	cmpq	$0, -8(%rbp)
	je	.L194
	.loc 5 729 8
	movq	-8(%rbp), %rax
	movq	%rax, %rcx
	call	_ZNSt16_Sp_counted_baseILN9__gnu_cxx12_Lock_policyE2EE15_M_add_ref_copyEv
.L194:
	.loc 5 730 10
	movq	16(%rbp), %rax
	movq	(%rax), %rax
	.loc 5 730 6
	testq	%rax, %rax
	je	.L195
	.loc 5 731 8
	movq	16(%rbp), %rax
	movq	(%rax), %rax
	movq	%rax, %rcx
	call	_ZNSt16_Sp_counted_baseILN9__gnu_cxx12_Lock_policyE2EE10_M_releaseEv
.L195:
	.loc 5 732 6
	movq	16(%rbp), %rax
	movq	-8(%rbp), %rdx
	movq	%rdx, (%rax)
.L193:
	.loc 5 734 10
	movq	16(%rbp), %rax
	.loc 5 735 7
	addq	$48, %rsp
	popq	%rbp
	.cfi_restore 6
	.cfi_def_cfa 7, 8
	ret
	.cfi_endproc
.LFE5785:
	.seh_endproc
	.section	.text$_ZNSt16_Sp_counted_baseILN9__gnu_cxx12_Lock_policyE2EED2Ev,"x"
	.linkonce discard
	.align 2
	.globl	_ZNSt16_Sp_counted_baseILN9__gnu_cxx12_Lock_policyE2EED2Ev
	.def	_ZNSt16_Sp_counted_baseILN9__gnu_cxx12_Lock_policyE2EED2Ev;	.scl	2;	.type	32;	.endef
	.seh_proc	_ZNSt16_Sp_counted_baseILN9__gnu_cxx12_Lock_policyE2EED2Ev
_ZNSt16_Sp_counted_baseILN9__gnu_cxx12_Lock_policyE2EED2Ev:
.LFB5821:
	.loc 5 127 7
	.cfi_startproc
	pushq	%rbp
	.seh_pushreg	%rbp
	.cfi_def_cfa_offset 16
	.cfi_offset 6, -16
	movq	%rsp, %rbp
	.seh_setframe	%rbp, 0
	.cfi_def_cfa_register 6
	.seh_endprologue
	movq	%rcx, 16(%rbp)
.LBB31:
	.loc 5 128 9
	leaq	16+_ZTVSt16_Sp_counted_baseILN9__gnu_cxx12_Lock_policyE2EE(%rip), %rdx
	movq	16(%rbp), %rax
	movq	%rdx, (%rax)
.LBE31:
	nop
	popq	%rbp
	.cfi_restore 6
	.cfi_def_cfa 7, 8
	ret
	.cfi_endproc
.LFE5821:
	.seh_endproc
	.section	.text$_ZNSt14__array_traitsIbLy349EE6_S_ptrERA349_Kb,"x"
	.linkonce discard
	.globl	_ZNSt14__array_traitsIbLy349EE6_S_ptrERA349_Kb
	.def	_ZNSt14__array_traitsIbLy349EE6_S_ptrERA349_Kb;	.scl	2;	.type	32;	.endef
	.seh_proc	_ZNSt14__array_traitsIbLy349EE6_S_ptrERA349_Kb
_ZNSt14__array_traitsIbLy349EE6_S_ptrERA349_Kb:
.LFB5824:
	.loc 8 59 7
	.cfi_startproc
	pushq	%rbp
	.seh_pushreg	%rbp
	.cfi_def_cfa_offset 16
	.cfi_offset 6, -16
	movq	%rsp, %rbp
	.seh_setframe	%rbp, 0
	.cfi_def_cfa_register 6
	.seh_endprologue
	movq	%rcx, 16(%rbp)
	.loc 8 60 36
	movq	16(%rbp), %rax
	.loc 8 60 39
	popq	%rbp
	.cfi_restore 6
	.cfi_def_cfa 7, 8
	ret
	.cfi_endproc
.LFE5824:
	.seh_endproc
	.section	.text$_ZNSt12__shared_ptrI11StartScreenLN9__gnu_cxx12_Lock_policyE2EEC2ISaIS0_EJRKSt6vectorINSt7__cxx1112basic_stringIcSt11char_traitsIcESaIcEEESaISC_EEEEESt19_Sp_make_shared_tagRKT_DpOT0_,"x"
	.linkonce discard
	.align 2
	.globl	_ZNSt12__shared_ptrI11StartScreenLN9__gnu_cxx12_Lock_policyE2EEC2ISaIS0_EJRKSt6vectorINSt7__cxx1112basic_stringIcSt11char_traitsIcESaIcEEESaISC_EEEEESt19_Sp_make_shared_tagRKT_DpOT0_
	.def	_ZNSt12__shared_ptrI11StartScreenLN9__gnu_cxx12_Lock_policyE2EEC2ISaIS0_EJRKSt6vectorINSt7__cxx1112basic_stringIcSt11char_traitsIcESaIcEEESaISC_EEEEESt19_Sp_make_shared_tagRKT_DpOT0_;	.scl	2;	.type	32;	.endef
	.seh_proc	_ZNSt12__shared_ptrI11StartScreenLN9__gnu_cxx12_Lock_policyE2EEC2ISaIS0_EJRKSt6vectorINSt7__cxx1112basic_stringIcSt11char_traitsIcESaIcEEESaISC_EEEEESt19_Sp_make_shared_tagRKT_DpOT0_
_ZNSt12__shared_ptrI11StartScreenLN9__gnu_cxx12_Lock_policyE2EEC2ISaIS0_EJRKSt6vectorINSt7__cxx1112basic_stringIcSt11char_traitsIcESaIcEEESaISC_EEEEESt19_Sp_make_shared_tagRKT_DpOT0_:
.LFB5826:
	.loc 5 1325 2
	.cfi_startproc
	pushq	%rbp
	.seh_pushreg	%rbp
	.cfi_def_cfa_offset 16
	.cfi_offset 6, -16
	pushq	%rsi
	.seh_pushreg	%rsi
	.cfi_def_cfa_offset 24
	.cfi_offset 4, -24
	pushq	%rbx
	.seh_pushreg	%rbx
	.cfi_def_cfa_offset 32
	.cfi_offset 3, -32
	movq	%rsp, %rbp
	.seh_setframe	%rbp, 0
	.cfi_def_cfa_register 6
	subq	$64, %rsp
	.seh_stackalloc	64
	.seh_endprologue
	movq	%rcx, 32(%rbp)
	movb	%dl, 40(%rbp)
	movq	%r8, 40(%rbp)
	movq	%r9, 48(%rbp)
.LBB32:
	.loc 5 1328 35
	movq	32(%rbp), %rax
	movq	$0, (%rax)
	movq	32(%rbp), %rax
	leaq	8(%rax), %rbx
	movq	48(%rbp), %rax
	movq	%rax, %rcx
	call	_ZSt7forwardIRKSt6vectorINSt7__cxx1112basic_stringIcSt11char_traitsIcESaIcEEESaIS6_EEEOT_RNSt16remove_referenceISB_E4typeE
	movq	%rax, %rdx
	movq	40(%rbp), %rax
	movq	%rdx, 32(%rsp)
	movq	%rax, %r9
	movl	$0, %r8d
	movl	%esi, %edx
	movq	%rbx, %rcx
	call	_ZNSt14__shared_countILN9__gnu_cxx12_Lock_policyE2EEC1I11StartScreenSaIS4_EJRKSt6vectorINSt7__cxx1112basic_stringIcSt11char_traitsIcESaIcEEESaISC_EEEEESt19_Sp_make_shared_tagPT_RKT0_DpOT1_
.LBB33:
	.loc 5 1333 10
	movq	32(%rbp), %rax
	addq	$8, %rax
	leaq	_ZTISt19_Sp_make_shared_tag(%rip), %rdx
	movq	%rax, %rcx
	call	_ZNKSt14__shared_countILN9__gnu_cxx12_Lock_policyE2EE14_M_get_deleterERKSt9type_info
	movq	%rax, -8(%rbp)
	.loc 5 1337 4
	movq	32(%rbp), %rax
	movq	-8(%rbp), %rdx
	movq	%rdx, (%rax)
	.loc 5 1338 4
	movq	32(%rbp), %rax
	movq	(%rax), %rax
	movq	%rax, %rdx
	movq	32(%rbp), %rcx
	call	_ZNSt12__shared_ptrI11StartScreenLN9__gnu_cxx12_Lock_policyE2EE31_M_enable_shared_from_this_withIS0_S0_EENSt9enable_ifIXntsrNS3_15__has_esft_baseIT0_vEE5valueEvE4typeEPT_
.LBE33:
.LBE32:
	.loc 5 1339 2
	nop
	addq	$64, %rsp
	popq	%rbx
	.cfi_restore 3
	popq	%rsi
	.cfi_restore 4
	popq	%rbp
	.cfi_restore 6
	.cfi_def_cfa 7, 24
	ret
	.cfi_endproc
.LFE5826:
	.seh_endproc
	.section	.text$_ZSt4moveIRP10IGameStateEONSt16remove_referenceIT_E4typeEOS4_,"x"
	.linkonce discard
	.globl	_ZSt4moveIRP10IGameStateEONSt16remove_referenceIT_E4typeEOS4_
	.def	_ZSt4moveIRP10IGameStateEONSt16remove_referenceIT_E4typeEOS4_;	.scl	2;	.type	32;	.endef
	.seh_proc	_ZSt4moveIRP10IGameStateEONSt16remove_referenceIT_E4typeEOS4_
_ZSt4moveIRP10IGameStateEONSt16remove_referenceIT_E4typeEOS4_:
.LFB5829:
	.loc 13 99 5
	.cfi_startproc
	pushq	%rbp
	.seh_pushreg	%rbp
	.cfi_def_cfa_offset 16
	.cfi_offset 6, -16
	movq	%rsp, %rbp
	.seh_setframe	%rbp, 0
	.cfi_def_cfa_register 6
	.seh_endprologue
	movq	%rcx, 16(%rbp)
	.loc 13 100 74
	movq	16(%rbp), %rax
	.loc 13 100 77
	popq	%rbp
	.cfi_restore 6
	.cfi_def_cfa 7, 8
	ret
	.cfi_endproc
.LFE5829:
	.seh_endproc
	.section	.text$_ZSt4swapIP10IGameStateENSt9enable_ifIXsrSt6__and_IJSt6__not_ISt15__is_tuple_likeIT_EESt21is_move_constructibleIS6_ESt18is_move_assignableIS6_EEE5valueEvE4typeERS6_SG_,"x"
	.linkonce discard
	.globl	_ZSt4swapIP10IGameStateENSt9enable_ifIXsrSt6__and_IJSt6__not_ISt15__is_tuple_likeIT_EESt21is_move_constructibleIS6_ESt18is_move_assignableIS6_EEE5valueEvE4typeERS6_SG_
	.def	_ZSt4swapIP10IGameStateENSt9enable_ifIXsrSt6__and_IJSt6__not_ISt15__is_tuple_likeIT_EESt21is_move_constructibleIS6_ESt18is_move_assignableIS6_EEE5valueEvE4typeERS6_SG_;	.scl	2;	.type	32;	.endef
	.seh_proc	_ZSt4swapIP10IGameStateENSt9enable_ifIXsrSt6__and_IJSt6__not_ISt15__is_tuple_likeIT_EESt21is_move_constructibleIS6_ESt18is_move_assignableIS6_EEE5valueEvE4typeERS6_SG_
_ZSt4swapIP10IGameStateENSt9enable_ifIXsrSt6__and_IJSt6__not_ISt15__is_tuple_likeIT_EESt21is_move_constructibleIS6_ESt18is_move_assignableIS6_EEE5valueEvE4typeERS6_SG_:
.LFB5828:
	.loc 13 182 5
	.cfi_startproc
	pushq	%rbp
	.seh_pushreg	%rbp
	.cfi_def_cfa_offset 16
	.cfi_offset 6, -16
	movq	%rsp, %rbp
	.seh_setframe	%rbp, 0
	.cfi_def_cfa_register 6
	subq	$48, %rsp
	.seh_stackalloc	48
	.seh_endprologue
	movq	%rcx, 16(%rbp)
	movq	%rdx, 24(%rbp)
	.loc 13 193 28
	movq	16(%rbp), %rcx
	call	_ZSt4moveIRP10IGameStateEONSt16remove_referenceIT_E4typeEOS4_
	.loc 13 193 11
	movq	(%rax), %rax
	movq	%rax, -8(%rbp)
	.loc 13 194 22
	movq	24(%rbp), %rax
	movq	%rax, %rcx
	call	_ZSt4moveIRP10IGameStateEONSt16remove_referenceIT_E4typeEOS4_
	.loc 13 194 7
	movq	(%rax), %rdx
	movq	16(%rbp), %rax
	movq	%rdx, (%rax)
	.loc 13 195 22
	leaq	-8(%rbp), %rax
	movq	%rax, %rcx
	call	_ZSt4moveIRP10IGameStateEONSt16remove_referenceIT_E4typeEOS4_
	.loc 13 195 7
	movq	(%rax), %rdx
	movq	24(%rbp), %rax
	movq	%rdx, (%rax)
	.loc 13 196 5
	nop
	addq	$48, %rsp
	popq	%rbp
	.cfi_restore 6
	.cfi_def_cfa 7, 8
	ret
	.cfi_endproc
.LFE5828:
	.seh_endproc
	.section	.text$_ZN3glm3matILi4ELi4EfLNS_9qualifierE0EE6lengthEv,"x"
	.linkonce discard
	.globl	_ZN3glm3matILi4ELi4EfLNS_9qualifierE0EE6lengthEv
	.def	_ZN3glm3matILi4ELi4EfLNS_9qualifierE0EE6lengthEv;	.scl	2;	.type	32;	.endef
	.seh_proc	_ZN3glm3matILi4ELi4EfLNS_9qualifierE0EE6lengthEv
_ZN3glm3matILi4ELi4EfLNS_9qualifierE0EE6lengthEv:
.LFB5830:
	.file 17 "N:/CPP_prj/SimpleCoding/BattleCity/external/glm/glm/detail/type_mat4x4.hpp"
	.loc 17 28 32
	.cfi_startproc
	.seh_endprologue
	.loc 17 28 48
	movl	$4, %eax
	.loc 17 28 50
	ret
	.cfi_endproc
.LFE5830:
	.seh_endproc
	.section	.text$_ZN3glm3vecILi4EfLNS_9qualifierE0EE6lengthEv,"x"
	.linkonce discard
	.globl	_ZN3glm3vecILi4EfLNS_9qualifierE0EE6lengthEv
	.def	_ZN3glm3vecILi4EfLNS_9qualifierE0EE6lengthEv;	.scl	2;	.type	32;	.endef
	.seh_proc	_ZN3glm3vecILi4EfLNS_9qualifierE0EE6lengthEv
_ZN3glm3vecILi4EfLNS_9qualifierE0EE6lengthEv:
.LFB5831:
	.file 18 "N:/CPP_prj/SimpleCoding/BattleCity/external/glm/glm/detail/type_vec4.hpp"
	.loc 18 90 32
	.cfi_startproc
	.seh_endprologue
	.loc 18 90 48
	movl	$4, %eax
	.loc 18 90 50
	ret
	.cfi_endproc
.LFE5831:
	.seh_endproc
	.section	.text$_ZNSt12__shared_ptrI5LevelLN9__gnu_cxx12_Lock_policyE2EEC2ISaIS0_EJRKSt6vectorINSt7__cxx1112basic_stringIcSt11char_traitsIcESaIcEEESaISC_EEEEESt19_Sp_make_shared_tagRKT_DpOT0_,"x"
	.linkonce discard
	.align 2
	.globl	_ZNSt12__shared_ptrI5LevelLN9__gnu_cxx12_Lock_policyE2EEC2ISaIS0_EJRKSt6vectorINSt7__cxx1112basic_stringIcSt11char_traitsIcESaIcEEESaISC_EEEEESt19_Sp_make_shared_tagRKT_DpOT0_
	.def	_ZNSt12__shared_ptrI5LevelLN9__gnu_cxx12_Lock_policyE2EEC2ISaIS0_EJRKSt6vectorINSt7__cxx1112basic_stringIcSt11char_traitsIcESaIcEEESaISC_EEEEESt19_Sp_make_shared_tagRKT_DpOT0_;	.scl	2;	.type	32;	.endef
	.seh_proc	_ZNSt12__shared_ptrI5LevelLN9__gnu_cxx12_Lock_policyE2EEC2ISaIS0_EJRKSt6vectorINSt7__cxx1112basic_stringIcSt11char_traitsIcESaIcEEESaISC_EEEEESt19_Sp_make_shared_tagRKT_DpOT0_
_ZNSt12__shared_ptrI5LevelLN9__gnu_cxx12_Lock_policyE2EEC2ISaIS0_EJRKSt6vectorINSt7__cxx1112basic_stringIcSt11char_traitsIcESaIcEEESaISC_EEEEESt19_Sp_make_shared_tagRKT_DpOT0_:
.LFB5833:
	.loc 5 1325 2
	.cfi_startproc
	pushq	%rbp
	.seh_pushreg	%rbp
	.cfi_def_cfa_offset 16
	.cfi_offset 6, -16
	pushq	%rsi
	.seh_pushreg	%rsi
	.cfi_def_cfa_offset 24
	.cfi_offset 4, -24
	pushq	%rbx
	.seh_pushreg	%rbx
	.cfi_def_cfa_offset 32
	.cfi_offset 3, -32
	movq	%rsp, %rbp
	.seh_setframe	%rbp, 0
	.cfi_def_cfa_register 6
	subq	$64, %rsp
	.seh_stackalloc	64
	.seh_endprologue
	movq	%rcx, 32(%rbp)
	movb	%dl, 40(%rbp)
	movq	%r8, 40(%rbp)
	movq	%r9, 48(%rbp)
.LBB34:
	.loc 5 1328 35
	movq	32(%rbp), %rax
	movq	$0, (%rax)
	movq	32(%rbp), %rax
	leaq	8(%rax), %rbx
	movq	48(%rbp), %rax
	movq	%rax, %rcx
	call	_ZSt7forwardIRKSt6vectorINSt7__cxx1112basic_stringIcSt11char_traitsIcESaIcEEESaIS6_EEEOT_RNSt16remove_referenceISB_E4typeE
	movq	%rax, %rdx
	movq	40(%rbp), %rax
	movq	%rdx, 32(%rsp)
	movq	%rax, %r9
	movl	$0, %r8d
	movl	%esi, %edx
	movq	%rbx, %rcx
	call	_ZNSt14__shared_countILN9__gnu_cxx12_Lock_policyE2EEC1I5LevelSaIS4_EJRKSt6vectorINSt7__cxx1112basic_stringIcSt11char_traitsIcESaIcEEESaISC_EEEEESt19_Sp_make_shared_tagPT_RKT0_DpOT1_
.LBB35:
	.loc 5 1333 10
	movq	32(%rbp), %rax
	addq	$8, %rax
	leaq	_ZTISt19_Sp_make_shared_tag(%rip), %rdx
	movq	%rax, %rcx
	call	_ZNKSt14__shared_countILN9__gnu_cxx12_Lock_policyE2EE14_M_get_deleterERKSt9type_info
	movq	%rax, -8(%rbp)
	.loc 5 1337 4
	movq	32(%rbp), %rax
	movq	-8(%rbp), %rdx
	movq	%rdx, (%rax)
	.loc 5 1338 4
	movq	32(%rbp), %rax
	movq	(%rax), %rax
	movq	%rax, %rdx
	movq	32(%rbp), %rcx
	call	_ZNSt12__shared_ptrI5LevelLN9__gnu_cxx12_Lock_policyE2EE31_M_enable_shared_from_this_withIS0_S0_EENSt9enable_ifIXntsrNS3_15__has_esft_baseIT0_vEE5valueEvE4typeEPT_
.LBE35:
.LBE34:
	.loc 5 1339 2
	nop
	addq	$64, %rsp
	popq	%rbx
	.cfi_restore 3
	popq	%rsi
	.cfi_restore 4
	popq	%rbp
	.cfi_restore 6
	.cfi_def_cfa 7, 24
	ret
	.cfi_endproc
.LFE5833:
	.seh_endproc
	.section	.text$_ZNSt14__shared_countILN9__gnu_cxx12_Lock_policyE2EEC1I11StartScreenSaIS4_EJRKSt6vectorINSt7__cxx1112basic_stringIcSt11char_traitsIcESaIcEEESaISC_EEEEESt19_Sp_make_shared_tagPT_RKT0_DpOT1_,"x"
	.linkonce discard
	.align 2
	.globl	_ZNSt14__shared_countILN9__gnu_cxx12_Lock_policyE2EEC1I11StartScreenSaIS4_EJRKSt6vectorINSt7__cxx1112basic_stringIcSt11char_traitsIcESaIcEEESaISC_EEEEESt19_Sp_make_shared_tagPT_RKT0_DpOT1_
	.def	_ZNSt14__shared_countILN9__gnu_cxx12_Lock_policyE2EEC1I11StartScreenSaIS4_EJRKSt6vectorINSt7__cxx1112basic_stringIcSt11char_traitsIcESaIcEEESaISC_EEEEESt19_Sp_make_shared_tagPT_RKT0_DpOT1_;	.scl	2;	.type	32;	.endef
	.seh_proc	_ZNSt14__shared_countILN9__gnu_cxx12_Lock_policyE2EEC1I11StartScreenSaIS4_EJRKSt6vectorINSt7__cxx1112basic_stringIcSt11char_traitsIcESaIcEEESaISC_EEEEESt19_Sp_make_shared_tagPT_RKT0_DpOT1_
_ZNSt14__shared_countILN9__gnu_cxx12_Lock_policyE2EEC1I11StartScreenSaIS4_EJRKSt6vectorINSt7__cxx1112basic_stringIcSt11char_traitsIcESaIcEEESaISC_EEEEESt19_Sp_make_shared_tagPT_RKT0_DpOT1_:
.LFB5866:
	.loc 5 654 2
	.cfi_startproc
	pushq	%rbp
	.seh_pushreg	%rbp
	.cfi_def_cfa_offset 16
	.cfi_offset 6, -16
	pushq	%r12
	.seh_pushreg	%r12
	.cfi_def_cfa_offset 24
	.cfi_offset 12, -24
	pushq	%rdi
	.seh_pushreg	%rdi
	.cfi_def_cfa_offset 32
	.cfi_offset 5, -32
	pushq	%rsi
	.seh_pushreg	%rsi
	.cfi_def_cfa_offset 40
	.cfi_offset 4, -40
	pushq	%rbx
	.seh_pushreg	%rbx
	.cfi_def_cfa_offset 48
	.cfi_offset 3, -48
	movq	%rsp, %rbp
	.seh_setframe	%rbp, 0
	.cfi_def_cfa_register 6
	subq	$64, %rsp
	.seh_stackalloc	64
	.seh_endprologue
	movq	%rcx, 48(%rbp)
	movb	%dl, 56(%rbp)
	movq	%r8, 56(%rbp)
	movq	%r9, 64(%rbp)
.LBB36:
	.loc 5 656 11
	movq	48(%rbp), %rax
	movq	$0, (%rax)
.LBB37:
	.loc 5 659 43
	movq	64(%rbp), %rdx
	leaq	-10(%rbp), %rax
	movq	%rax, %rcx
	call	_ZNSaISt23_Sp_counted_ptr_inplaceI11StartScreenSaIS0_ELN9__gnu_cxx12_Lock_policyE2EEEC1IS0_EERKSaIT_E
	.loc 5 660 9
	leaq	-32(%rbp), %rax
	leaq	-10(%rbp), %rdx
	movq	%rax, %rcx
.LEHB19:
	call	_ZSt18__allocate_guardedISaISt23_Sp_counted_ptr_inplaceI11StartScreenSaIS1_ELN9__gnu_cxx12_Lock_policyE2EEEESt15__allocated_ptrIT_ERS8_
.LEHE19:
	.loc 5 661 17
	leaq	-32(%rbp), %rax
	movq	%rax, %rcx
	call	_ZNSt15__allocated_ptrISaISt23_Sp_counted_ptr_inplaceI11StartScreenSaIS1_ELN9__gnu_cxx12_Lock_policyE2EEEE3getEv
	movq	%rax, -8(%rbp)
	.loc 5 662 39
	movq	64(%rbp), %rax
	movq	%rax, %rcx
	call	_ZSt4moveIRKSaI11StartScreenEEONSt16remove_referenceIT_E4typeEOS5_
	movq	%rax, %rdx
	.loc 5 662 4
	leaq	-9(%rbp), %rax
	movq	%rax, %rcx
	call	_ZNSaI11StartScreenEC1ERKS0_
	leaq	-9(%rbp), %rsi
	.loc 5 663 28
	movq	80(%rbp), %rax
	movq	%rax, %rcx
	call	_ZSt7forwardIRKSt6vectorINSt7__cxx1112basic_stringIcSt11char_traitsIcESaIcEEESaIS6_EEEOT_RNSt16remove_referenceISB_E4typeE
	movq	%rax, %r12
	.loc 5 662 4
	movq	-8(%rbp), %rbx
	movq	%rbx, %rdx
	movl	$48, %ecx
	call	_ZnwyPv
	movq	%rax, %rdi
	movq	%r12, %r8
	movq	%rsi, %rdx
	movq	%rdi, %rcx
.LEHB20:
	call	_ZNSt23_Sp_counted_ptr_inplaceI11StartScreenSaIS0_ELN9__gnu_cxx12_Lock_policyE2EEC1IJRKSt6vectorINSt7__cxx1112basic_stringIcSt11char_traitsIcESaIcEEESaISC_EEEEES1_DpOT_
.LEHE20:
	.loc 5 662 4 is_stmt 0 discriminator 2
	leaq	-9(%rbp), %rax
	movq	%rax, %rcx
	call	_ZNSaI11StartScreenED1Ev
	.loc 5 664 4 is_stmt 1 discriminator 2
	movq	48(%rbp), %rax
	movq	-8(%rbp), %rdx
	movq	%rdx, (%rax)
	.loc 5 665 12 discriminator 2
	leaq	-32(%rbp), %rax
	movl	$0, %edx
	movq	%rax, %rcx
	call	_ZNSt15__allocated_ptrISaISt23_Sp_counted_ptr_inplaceI11StartScreenSaIS1_ELN9__gnu_cxx12_Lock_policyE2EEEEaSEDn
	.loc 5 660 9 discriminator 2
	leaq	-32(%rbp), %rax
	movq	%rax, %rcx
	call	_ZNSt15__allocated_ptrISaISt23_Sp_counted_ptr_inplaceI11StartScreenSaIS1_ELN9__gnu_cxx12_Lock_policyE2EEEED1Ev
	.loc 5 659 43 discriminator 2
	leaq	-10(%rbp), %rax
	movq	%rax, %rcx
	call	_ZNSaISt23_Sp_counted_ptr_inplaceI11StartScreenSaIS0_ELN9__gnu_cxx12_Lock_policyE2EEED1Ev
.LBE37:
.LBE36:
	.loc 5 666 2 discriminator 2
	jmp	.L214
.L213:
	movq	%rax, %rsi
.LBB39:
.LBB38:
	.loc 5 662 4
	movq	%rbx, %rdx
	movq	%rdi, %rcx
	call	_ZdlPvS_
	movq	%rsi, %rbx
	leaq	-9(%rbp), %rax
	movq	%rax, %rcx
	call	_ZNSaI11StartScreenED1Ev
	.loc 5 660 9
	leaq	-32(%rbp), %rax
	movq	%rax, %rcx
	call	_ZNSt15__allocated_ptrISaISt23_Sp_counted_ptr_inplaceI11StartScreenSaIS1_ELN9__gnu_cxx12_Lock_policyE2EEEED1Ev
	jmp	.L211
.L212:
	movq	%rax, %rbx
.L211:
	.loc 5 659 43
	leaq	-10(%rbp), %rax
	movq	%rax, %rcx
	call	_ZNSaISt23_Sp_counted_ptr_inplaceI11StartScreenSaIS0_ELN9__gnu_cxx12_Lock_policyE2EEED1Ev
	movq	%rbx, %rax
	movq	%rax, %rcx
.LEHB21:
	call	_Unwind_Resume
	nop
.LEHE21:
.L214:
.LBE38:
.LBE39:
	.loc 5 666 2
	addq	$64, %rsp
	popq	%rbx
	.cfi_restore 3
	popq	%rsi
	.cfi_restore 4
	popq	%rdi
	.cfi_restore 5
	popq	%r12
	.cfi_restore 12
	popq	%rbp
	.cfi_restore 6
	.cfi_def_cfa 7, 40
	ret
	.cfi_endproc
.LFE5866:
	.seh_handler	__gxx_personality_seh0, @unwind, @except
	.seh_handlerdata
.LLSDA5866:
	.byte	0xff
	.byte	0xff
	.byte	0x1
	.uleb128 .LLSDACSE5866-.LLSDACSB5866
.LLSDACSB5866:
	.uleb128 .LEHB19-.LFB5866
	.uleb128 .LEHE19-.LEHB19
	.uleb128 .L212-.LFB5866
	.uleb128 0
	.uleb128 .LEHB20-.LFB5866
	.uleb128 .LEHE20-.LEHB20
	.uleb128 .L213-.LFB5866
	.uleb128 0
	.uleb128 .LEHB21-.LFB5866
	.uleb128 .LEHE21-.LEHB21
	.uleb128 0
	.uleb128 0
.LLSDACSE5866:
	.section	.text$_ZNSt14__shared_countILN9__gnu_cxx12_Lock_policyE2EEC1I11StartScreenSaIS4_EJRKSt6vectorINSt7__cxx1112basic_stringIcSt11char_traitsIcESaIcEEESaISC_EEEEESt19_Sp_make_shared_tagPT_RKT0_DpOT1_,"x"
	.linkonce discard
	.seh_endproc
	.section	.text$_ZNKSt14__shared_countILN9__gnu_cxx12_Lock_policyE2EE14_M_get_deleterERKSt9type_info,"x"
	.linkonce discard
	.align 2
	.globl	_ZNKSt14__shared_countILN9__gnu_cxx12_Lock_policyE2EE14_M_get_deleterERKSt9type_info
	.def	_ZNKSt14__shared_countILN9__gnu_cxx12_Lock_policyE2EE14_M_get_deleterERKSt9type_info;	.scl	2;	.type	32;	.endef
	.seh_proc	_ZNKSt14__shared_countILN9__gnu_cxx12_Lock_policyE2EE14_M_get_deleterERKSt9type_info
_ZNKSt14__shared_countILN9__gnu_cxx12_Lock_policyE2EE14_M_get_deleterERKSt9type_info:
.LFB5867:
	.loc 5 754 7
	.cfi_startproc
	pushq	%rbp
	.seh_pushreg	%rbp
	.cfi_def_cfa_offset 16
	.cfi_offset 6, -16
	movq	%rsp, %rbp
	.seh_setframe	%rbp, 0
	.cfi_def_cfa_register 6
	subq	$32, %rsp
	.seh_stackalloc	32
	.seh_endprologue
	movq	%rcx, 16(%rbp)
	movq	%rdx, 24(%rbp)
	.loc 5 755 16
	movq	16(%rbp), %rax
	movq	(%rax), %rax
	.loc 5 755 22
	testq	%rax, %rax
	je	.L216
	.loc 5 755 24 discriminator 1
	movq	16(%rbp), %rax
	movq	(%rax), %rcx
	movq	16(%rbp), %rax
	movq	(%rax), %rax
	.loc 5 755 22 discriminator 1
	movq	(%rax), %rax
	addq	$32, %rax
	movq	(%rax), %rax
	movq	24(%rbp), %rdx
	call	*%rax
.LVL12:
	.loc 5 755 54 discriminator 1
	jmp	.L218
.L216:
	.loc 5 755 22 discriminator 2
	movl	$0, %eax
.L218:
	.loc 5 755 63 discriminator 5
	addq	$32, %rsp
	popq	%rbp
	.cfi_restore 6
	.cfi_def_cfa 7, 8
	ret
	.cfi_endproc
.LFE5867:
	.seh_endproc
	.section	.text$_ZNSt12__shared_ptrI11StartScreenLN9__gnu_cxx12_Lock_policyE2EE31_M_enable_shared_from_this_withIS0_S0_EENSt9enable_ifIXntsrNS3_15__has_esft_baseIT0_vEE5valueEvE4typeEPT_,"x"
	.linkonce discard
	.align 2
	.globl	_ZNSt12__shared_ptrI11StartScreenLN9__gnu_cxx12_Lock_policyE2EE31_M_enable_shared_from_this_withIS0_S0_EENSt9enable_ifIXntsrNS3_15__has_esft_baseIT0_vEE5valueEvE4typeEPT_
	.def	_ZNSt12__shared_ptrI11StartScreenLN9__gnu_cxx12_Lock_policyE2EE31_M_enable_shared_from_this_withIS0_S0_EENSt9enable_ifIXntsrNS3_15__has_esft_baseIT0_vEE5valueEvE4typeEPT_;	.scl	2;	.type	32;	.endef
	.seh_proc	_ZNSt12__shared_ptrI11StartScreenLN9__gnu_cxx12_Lock_policyE2EE31_M_enable_shared_from_this_withIS0_S0_EENSt9enable_ifIXntsrNS3_15__has_esft_baseIT0_vEE5valueEvE4typeEPT_
_ZNSt12__shared_ptrI11StartScreenLN9__gnu_cxx12_Lock_policyE2EE31_M_enable_shared_from_this_withIS0_S0_EENSt9enable_ifIXntsrNS3_15__has_esft_baseIT0_vEE5valueEvE4typeEPT_:
.LFB5868:
	.loc 5 1382 2
	.cfi_startproc
	pushq	%rbp
	.seh_pushreg	%rbp
	.cfi_def_cfa_offset 16
	.cfi_offset 6, -16
	movq	%rsp, %rbp
	.seh_setframe	%rbp, 0
	.cfi_def_cfa_register 6
	.seh_endprologue
	movq	%rcx, 16(%rbp)
	movq	%rdx, 24(%rbp)
	.loc 5 1383 4
	nop
	popq	%rbp
	.cfi_restore 6
	.cfi_def_cfa 7, 8
	ret
	.cfi_endproc
.LFE5868:
	.seh_endproc
	.section	.text$_ZNSt14__shared_countILN9__gnu_cxx12_Lock_policyE2EEC1I5LevelSaIS4_EJRKSt6vectorINSt7__cxx1112basic_stringIcSt11char_traitsIcESaIcEEESaISC_EEEEESt19_Sp_make_shared_tagPT_RKT0_DpOT1_,"x"
	.linkonce discard
	.align 2
	.globl	_ZNSt14__shared_countILN9__gnu_cxx12_Lock_policyE2EEC1I5LevelSaIS4_EJRKSt6vectorINSt7__cxx1112basic_stringIcSt11char_traitsIcESaIcEEESaISC_EEEEESt19_Sp_make_shared_tagPT_RKT0_DpOT1_
	.def	_ZNSt14__shared_countILN9__gnu_cxx12_Lock_policyE2EEC1I5LevelSaIS4_EJRKSt6vectorINSt7__cxx1112basic_stringIcSt11char_traitsIcESaIcEEESaISC_EEEEESt19_Sp_make_shared_tagPT_RKT0_DpOT1_;	.scl	2;	.type	32;	.endef
	.seh_proc	_ZNSt14__shared_countILN9__gnu_cxx12_Lock_policyE2EEC1I5LevelSaIS4_EJRKSt6vectorINSt7__cxx1112basic_stringIcSt11char_traitsIcESaIcEEESaISC_EEEEESt19_Sp_make_shared_tagPT_RKT0_DpOT1_
_ZNSt14__shared_countILN9__gnu_cxx12_Lock_policyE2EEC1I5LevelSaIS4_EJRKSt6vectorINSt7__cxx1112basic_stringIcSt11char_traitsIcESaIcEEESaISC_EEEEESt19_Sp_make_shared_tagPT_RKT0_DpOT1_:
.LFB5871:
	.loc 5 654 2
	.cfi_startproc
	pushq	%rbp
	.seh_pushreg	%rbp
	.cfi_def_cfa_offset 16
	.cfi_offset 6, -16
	pushq	%r12
	.seh_pushreg	%r12
	.cfi_def_cfa_offset 24
	.cfi_offset 12, -24
	pushq	%rdi
	.seh_pushreg	%rdi
	.cfi_def_cfa_offset 32
	.cfi_offset 5, -32
	pushq	%rsi
	.seh_pushreg	%rsi
	.cfi_def_cfa_offset 40
	.cfi_offset 4, -40
	pushq	%rbx
	.seh_pushreg	%rbx
	.cfi_def_cfa_offset 48
	.cfi_offset 3, -48
	movq	%rsp, %rbp
	.seh_setframe	%rbp, 0
	.cfi_def_cfa_register 6
	subq	$64, %rsp
	.seh_stackalloc	64
	.seh_endprologue
	movq	%rcx, 48(%rbp)
	movb	%dl, 56(%rbp)
	movq	%r8, 56(%rbp)
	movq	%r9, 64(%rbp)
.LBB40:
	.loc 5 656 11
	movq	48(%rbp), %rax
	movq	$0, (%rax)
.LBB41:
	.loc 5 659 43
	movq	64(%rbp), %rdx
	leaq	-10(%rbp), %rax
	movq	%rax, %rcx
	call	_ZNSaISt23_Sp_counted_ptr_inplaceI5LevelSaIS0_ELN9__gnu_cxx12_Lock_policyE2EEEC1IS0_EERKSaIT_E
	.loc 5 660 9
	leaq	-32(%rbp), %rax
	leaq	-10(%rbp), %rdx
	movq	%rax, %rcx
.LEHB22:
	call	_ZSt18__allocate_guardedISaISt23_Sp_counted_ptr_inplaceI5LevelSaIS1_ELN9__gnu_cxx12_Lock_policyE2EEEESt15__allocated_ptrIT_ERS8_
.LEHE22:
	.loc 5 661 17
	leaq	-32(%rbp), %rax
	movq	%rax, %rcx
	call	_ZNSt15__allocated_ptrISaISt23_Sp_counted_ptr_inplaceI5LevelSaIS1_ELN9__gnu_cxx12_Lock_policyE2EEEE3getEv
	movq	%rax, -8(%rbp)
	.loc 5 662 39
	movq	64(%rbp), %rax
	movq	%rax, %rcx
	call	_ZSt4moveIRKSaI5LevelEEONSt16remove_referenceIT_E4typeEOS5_
	movq	%rax, %rdx
	.loc 5 662 4
	leaq	-9(%rbp), %rax
	movq	%rax, %rcx
	call	_ZNSaI5LevelEC1ERKS0_
	leaq	-9(%rbp), %rsi
	.loc 5 663 28
	movq	80(%rbp), %rax
	movq	%rax, %rcx
	call	_ZSt7forwardIRKSt6vectorINSt7__cxx1112basic_stringIcSt11char_traitsIcESaIcEEESaIS6_EEEOT_RNSt16remove_referenceISB_E4typeE
	movq	%rax, %r12
	.loc 5 662 4
	movq	-8(%rbp), %rbx
	movq	%rbx, %rdx
	movl	$128, %ecx
	call	_ZnwyPv
	movq	%rax, %rdi
	movq	%r12, %r8
	movq	%rsi, %rdx
	movq	%rdi, %rcx
.LEHB23:
	call	_ZNSt23_Sp_counted_ptr_inplaceI5LevelSaIS0_ELN9__gnu_cxx12_Lock_policyE2EEC1IJRKSt6vectorINSt7__cxx1112basic_stringIcSt11char_traitsIcESaIcEEESaISC_EEEEES1_DpOT_
.LEHE23:
	.loc 5 662 4 is_stmt 0 discriminator 2
	leaq	-9(%rbp), %rax
	movq	%rax, %rcx
	call	_ZNSaI5LevelED1Ev
	.loc 5 664 4 is_stmt 1 discriminator 2
	movq	48(%rbp), %rax
	movq	-8(%rbp), %rdx
	movq	%rdx, (%rax)
	.loc 5 665 12 discriminator 2
	leaq	-32(%rbp), %rax
	movl	$0, %edx
	movq	%rax, %rcx
	call	_ZNSt15__allocated_ptrISaISt23_Sp_counted_ptr_inplaceI5LevelSaIS1_ELN9__gnu_cxx12_Lock_policyE2EEEEaSEDn
	.loc 5 660 9 discriminator 2
	leaq	-32(%rbp), %rax
	movq	%rax, %rcx
	call	_ZNSt15__allocated_ptrISaISt23_Sp_counted_ptr_inplaceI5LevelSaIS1_ELN9__gnu_cxx12_Lock_policyE2EEEED1Ev
	.loc 5 659 43 discriminator 2
	leaq	-10(%rbp), %rax
	movq	%rax, %rcx
	call	_ZNSaISt23_Sp_counted_ptr_inplaceI5LevelSaIS0_ELN9__gnu_cxx12_Lock_policyE2EEED1Ev
.LBE41:
.LBE40:
	.loc 5 666 2 discriminator 2
	jmp	.L225
.L224:
	movq	%rax, %rsi
.LBB43:
.LBB42:
	.loc 5 662 4
	movq	%rbx, %rdx
	movq	%rdi, %rcx
	call	_ZdlPvS_
	movq	%rsi, %rbx
	leaq	-9(%rbp), %rax
	movq	%rax, %rcx
	call	_ZNSaI5LevelED1Ev
	.loc 5 660 9
	leaq	-32(%rbp), %rax
	movq	%rax, %rcx
	call	_ZNSt15__allocated_ptrISaISt23_Sp_counted_ptr_inplaceI5LevelSaIS1_ELN9__gnu_cxx12_Lock_policyE2EEEED1Ev
	jmp	.L222
.L223:
	movq	%rax, %rbx
.L222:
	.loc 5 659 43
	leaq	-10(%rbp), %rax
	movq	%rax, %rcx
	call	_ZNSaISt23_Sp_counted_ptr_inplaceI5LevelSaIS0_ELN9__gnu_cxx12_Lock_policyE2EEED1Ev
	movq	%rbx, %rax
	movq	%rax, %rcx
.LEHB24:
	call	_Unwind_Resume
	nop
.LEHE24:
.L225:
.LBE42:
.LBE43:
	.loc 5 666 2
	addq	$64, %rsp
	popq	%rbx
	.cfi_restore 3
	popq	%rsi
	.cfi_restore 4
	popq	%rdi
	.cfi_restore 5
	popq	%r12
	.cfi_restore 12
	popq	%rbp
	.cfi_restore 6
	.cfi_def_cfa 7, 40
	ret
	.cfi_endproc
.LFE5871:
	.seh_handler	__gxx_personality_seh0, @unwind, @except
	.seh_handlerdata
.LLSDA5871:
	.byte	0xff
	.byte	0xff
	.byte	0x1
	.uleb128 .LLSDACSE5871-.LLSDACSB5871
.LLSDACSB5871:
	.uleb128 .LEHB22-.LFB5871
	.uleb128 .LEHE22-.LEHB22
	.uleb128 .L223-.LFB5871
	.uleb128 0
	.uleb128 .LEHB23-.LFB5871
	.uleb128 .LEHE23-.LEHB23
	.uleb128 .L224-.LFB5871
	.uleb128 0
	.uleb128 .LEHB24-.LFB5871
	.uleb128 .LEHE24-.LEHB24
	.uleb128 0
	.uleb128 0
.LLSDACSE5871:
	.section	.text$_ZNSt14__shared_countILN9__gnu_cxx12_Lock_policyE2EEC1I5LevelSaIS4_EJRKSt6vectorINSt7__cxx1112basic_stringIcSt11char_traitsIcESaIcEEESaISC_EEEEESt19_Sp_make_shared_tagPT_RKT0_DpOT1_,"x"
	.linkonce discard
	.seh_endproc
	.section	.text$_ZNSt12__shared_ptrI5LevelLN9__gnu_cxx12_Lock_policyE2EE31_M_enable_shared_from_this_withIS0_S0_EENSt9enable_ifIXntsrNS3_15__has_esft_baseIT0_vEE5valueEvE4typeEPT_,"x"
	.linkonce discard
	.align 2
	.globl	_ZNSt12__shared_ptrI5LevelLN9__gnu_cxx12_Lock_policyE2EE31_M_enable_shared_from_this_withIS0_S0_EENSt9enable_ifIXntsrNS3_15__has_esft_baseIT0_vEE5valueEvE4typeEPT_
	.def	_ZNSt12__shared_ptrI5LevelLN9__gnu_cxx12_Lock_policyE2EE31_M_enable_shared_from_this_withIS0_S0_EENSt9enable_ifIXntsrNS3_15__has_esft_baseIT0_vEE5valueEvE4typeEPT_;	.scl	2;	.type	32;	.endef
	.seh_proc	_ZNSt12__shared_ptrI5LevelLN9__gnu_cxx12_Lock_policyE2EE31_M_enable_shared_from_this_withIS0_S0_EENSt9enable_ifIXntsrNS3_15__has_esft_baseIT0_vEE5valueEvE4typeEPT_
_ZNSt12__shared_ptrI5LevelLN9__gnu_cxx12_Lock_policyE2EE31_M_enable_shared_from_this_withIS0_S0_EENSt9enable_ifIXntsrNS3_15__has_esft_baseIT0_vEE5valueEvE4typeEPT_:
.LFB5872:
	.loc 5 1382 2
	.cfi_startproc
	pushq	%rbp
	.seh_pushreg	%rbp
	.cfi_def_cfa_offset 16
	.cfi_offset 6, -16
	movq	%rsp, %rbp
	.seh_setframe	%rbp, 0
	.cfi_def_cfa_register 6
	.seh_endprologue
	movq	%rcx, 16(%rbp)
	movq	%rdx, 24(%rbp)
	.loc 5 1383 4
	nop
	popq	%rbp
	.cfi_restore 6
	.cfi_def_cfa 7, 8
	ret
	.cfi_endproc
.LFE5872:
	.seh_endproc
	.section	.text$_ZNSaISt23_Sp_counted_ptr_inplaceI11StartScreenSaIS0_ELN9__gnu_cxx12_Lock_policyE2EEEC1IS0_EERKSaIT_E,"x"
	.linkonce discard
	.align 2
	.globl	_ZNSaISt23_Sp_counted_ptr_inplaceI11StartScreenSaIS0_ELN9__gnu_cxx12_Lock_policyE2EEEC1IS0_EERKSaIT_E
	.def	_ZNSaISt23_Sp_counted_ptr_inplaceI11StartScreenSaIS0_ELN9__gnu_cxx12_Lock_policyE2EEEC1IS0_EERKSaIT_E;	.scl	2;	.type	32;	.endef
	.seh_proc	_ZNSaISt23_Sp_counted_ptr_inplaceI11StartScreenSaIS0_ELN9__gnu_cxx12_Lock_policyE2EEEC1IS0_EERKSaIT_E
_ZNSaISt23_Sp_counted_ptr_inplaceI11StartScreenSaIS0_ELN9__gnu_cxx12_Lock_policyE2EEEC1IS0_EERKSaIT_E:
.LFB5902:
	.loc 12 137 2
	.cfi_startproc
	pushq	%rbp
	.seh_pushreg	%rbp
	.cfi_def_cfa_offset 16
	.cfi_offset 6, -16
	movq	%rsp, %rbp
	.seh_setframe	%rbp, 0
	.cfi_def_cfa_register 6
	subq	$32, %rsp
	.seh_stackalloc	32
	.seh_endprologue
	movq	%rcx, 16(%rbp)
	movq	%rdx, 24(%rbp)
.LBB44:
	.loc 12 137 44
	movq	16(%rbp), %rcx
	call	_ZN9__gnu_cxx13new_allocatorISt23_Sp_counted_ptr_inplaceI11StartScreenSaIS2_ELNS_12_Lock_policyE2EEEC2Ev
.LBE44:
	.loc 12 137 46
	nop
	addq	$32, %rsp
	popq	%rbp
	.cfi_restore 6
	.cfi_def_cfa 7, 8
	ret
	.cfi_endproc
.LFE5902:
	.seh_endproc
	.section	.text$_ZNSaISt23_Sp_counted_ptr_inplaceI11StartScreenSaIS0_ELN9__gnu_cxx12_Lock_policyE2EEED1Ev,"x"
	.linkonce discard
	.align 2
	.globl	_ZNSaISt23_Sp_counted_ptr_inplaceI11StartScreenSaIS0_ELN9__gnu_cxx12_Lock_policyE2EEED1Ev
	.def	_ZNSaISt23_Sp_counted_ptr_inplaceI11StartScreenSaIS0_ELN9__gnu_cxx12_Lock_policyE2EEED1Ev;	.scl	2;	.type	32;	.endef
	.seh_proc	_ZNSaISt23_Sp_counted_ptr_inplaceI11StartScreenSaIS0_ELN9__gnu_cxx12_Lock_policyE2EEED1Ev
_ZNSaISt23_Sp_counted_ptr_inplaceI11StartScreenSaIS0_ELN9__gnu_cxx12_Lock_policyE2EEED1Ev:
.LFB5905:
	.loc 12 139 7
	.cfi_startproc
	pushq	%rbp
	.seh_pushreg	%rbp
	.cfi_def_cfa_offset 16
	.cfi_offset 6, -16
	movq	%rsp, %rbp
	.seh_setframe	%rbp, 0
	.cfi_def_cfa_register 6
	subq	$32, %rsp
	.seh_stackalloc	32
	.seh_endprologue
	movq	%rcx, 16(%rbp)
.LBB45:
	.loc 12 139 30
	movq	16(%rbp), %rcx
	call	_ZN9__gnu_cxx13new_allocatorISt23_Sp_counted_ptr_inplaceI11StartScreenSaIS2_ELNS_12_Lock_policyE2EEED2Ev
.LBE45:
	nop
	addq	$32, %rsp
	popq	%rbp
	.cfi_restore 6
	.cfi_def_cfa 7, 8
	ret
	.cfi_endproc
.LFE5905:
	.seh_endproc
	.section	.text$_ZSt18__allocate_guardedISaISt23_Sp_counted_ptr_inplaceI11StartScreenSaIS1_ELN9__gnu_cxx12_Lock_policyE2EEEESt15__allocated_ptrIT_ERS8_,"x"
	.linkonce discard
	.globl	_ZSt18__allocate_guardedISaISt23_Sp_counted_ptr_inplaceI11StartScreenSaIS1_ELN9__gnu_cxx12_Lock_policyE2EEEESt15__allocated_ptrIT_ERS8_
	.def	_ZSt18__allocate_guardedISaISt23_Sp_counted_ptr_inplaceI11StartScreenSaIS1_ELN9__gnu_cxx12_Lock_policyE2EEEESt15__allocated_ptrIT_ERS8_;	.scl	2;	.type	32;	.endef
	.seh_proc	_ZSt18__allocate_guardedISaISt23_Sp_counted_ptr_inplaceI11StartScreenSaIS1_ELN9__gnu_cxx12_Lock_policyE2EEEESt15__allocated_ptrIT_ERS8_
_ZSt18__allocate_guardedISaISt23_Sp_counted_ptr_inplaceI11StartScreenSaIS1_ELN9__gnu_cxx12_Lock_policyE2EEEESt15__allocated_ptrIT_ERS8_:
.LFB5906:
	.file 19 "C:/Program Files/CodeBlocks/MinGW/lib/gcc/x86_64-w64-mingw32/8.1.0/include/c++/bits/allocated_ptr.h"
	.loc 19 95 5
	.cfi_startproc
	pushq	%rbp
	.seh_pushreg	%rbp
	.cfi_def_cfa_offset 16
	.cfi_offset 6, -16
	movq	%rsp, %rbp
	.seh_setframe	%rbp, 0
	.cfi_def_cfa_register 6
	subq	$32, %rsp
	.seh_stackalloc	32
	.seh_endprologue
	movq	%rcx, 16(%rbp)
	movq	%rdx, 24(%rbp)
	.loc 19 97 69
	movq	24(%rbp), %rax
	movl	$1, %edx
	movq	%rax, %rcx
	call	_ZNSt16allocator_traitsISaISt23_Sp_counted_ptr_inplaceI11StartScreenSaIS1_ELN9__gnu_cxx12_Lock_policyE2EEEE8allocateERS6_y
	movq	%rax, %rdx
	movq	24(%rbp), %rax
	movq	%rdx, %r8
	movq	%rax, %rdx
	movq	16(%rbp), %rcx
	call	_ZNSt15__allocated_ptrISaISt23_Sp_counted_ptr_inplaceI11StartScreenSaIS1_ELN9__gnu_cxx12_Lock_policyE2EEEEC1ERS6_PS5_
	.loc 19 98 5
	movq	16(%rbp), %rax
	addq	$32, %rsp
	popq	%rbp
	.cfi_restore 6
	.cfi_def_cfa 7, 8
	ret
	.cfi_endproc
.LFE5906:
	.seh_endproc
	.section	.text$_ZNSt15__allocated_ptrISaISt23_Sp_counted_ptr_inplaceI11StartScreenSaIS1_ELN9__gnu_cxx12_Lock_policyE2EEEED1Ev,"x"
	.linkonce discard
	.align 2
	.globl	_ZNSt15__allocated_ptrISaISt23_Sp_counted_ptr_inplaceI11StartScreenSaIS1_ELN9__gnu_cxx12_Lock_policyE2EEEED1Ev
	.def	_ZNSt15__allocated_ptrISaISt23_Sp_counted_ptr_inplaceI11StartScreenSaIS1_ELN9__gnu_cxx12_Lock_policyE2EEEED1Ev;	.scl	2;	.type	32;	.endef
	.seh_proc	_ZNSt15__allocated_ptrISaISt23_Sp_counted_ptr_inplaceI11StartScreenSaIS1_ELN9__gnu_cxx12_Lock_policyE2EEEED1Ev
_ZNSt15__allocated_ptrISaISt23_Sp_counted_ptr_inplaceI11StartScreenSaIS1_ELN9__gnu_cxx12_Lock_policyE2EEEED1Ev:
.LFB5909:
	.loc 19 70 7
	.cfi_startproc
	pushq	%rbp
	.seh_pushreg	%rbp
	.cfi_def_cfa_offset 16
	.cfi_offset 6, -16
	movq	%rsp, %rbp
	.seh_setframe	%rbp, 0
	.cfi_def_cfa_register 6
	subq	$32, %rsp
	.seh_stackalloc	32
	.seh_endprologue
	movq	%rcx, 16(%rbp)
.LBB46:
	.loc 19 72 6
	movq	16(%rbp), %rax
	movq	8(%rax), %rax
	.loc 19 72 2
	testq	%rax, %rax
	je	.L233
	.loc 19 73 45
	movq	16(%rbp), %rax
	movq	8(%rax), %rdx
	.loc 19 73 47
	movq	16(%rbp), %rax
	movq	(%rax), %rax
	.loc 19 73 45
	movl	$1, %r8d
	movq	%rax, %rcx
	call	_ZNSt16allocator_traitsISaISt23_Sp_counted_ptr_inplaceI11StartScreenSaIS1_ELN9__gnu_cxx12_Lock_policyE2EEEE10deallocateERS6_PS5_y
.L233:
.LBE46:
	.loc 19 74 7
	nop
	addq	$32, %rsp
	popq	%rbp
	.cfi_restore 6
	.cfi_def_cfa 7, 8
	ret
	.cfi_endproc
.LFE5909:
	.seh_handler	__gxx_personality_seh0, @unwind, @except
	.seh_handlerdata
.LLSDA5909:
	.byte	0xff
	.byte	0xff
	.byte	0x1
	.uleb128 .LLSDACSE5909-.LLSDACSB5909
.LLSDACSB5909:
.LLSDACSE5909:
	.section	.text$_ZNSt15__allocated_ptrISaISt23_Sp_counted_ptr_inplaceI11StartScreenSaIS1_ELN9__gnu_cxx12_Lock_policyE2EEEED1Ev,"x"
	.linkonce discard
	.seh_endproc
	.section	.text$_ZNSt15__allocated_ptrISaISt23_Sp_counted_ptr_inplaceI11StartScreenSaIS1_ELN9__gnu_cxx12_Lock_policyE2EEEE3getEv,"x"
	.linkonce discard
	.align 2
	.globl	_ZNSt15__allocated_ptrISaISt23_Sp_counted_ptr_inplaceI11StartScreenSaIS1_ELN9__gnu_cxx12_Lock_policyE2EEEE3getEv
	.def	_ZNSt15__allocated_ptrISaISt23_Sp_counted_ptr_inplaceI11StartScreenSaIS1_ELN9__gnu_cxx12_Lock_policyE2EEEE3getEv;	.scl	2;	.type	32;	.endef
	.seh_proc	_ZNSt15__allocated_ptrISaISt23_Sp_counted_ptr_inplaceI11StartScreenSaIS1_ELN9__gnu_cxx12_Lock_policyE2EEEE3getEv
_ZNSt15__allocated_ptrISaISt23_Sp_counted_ptr_inplaceI11StartScreenSaIS1_ELN9__gnu_cxx12_Lock_policyE2EEEE3getEv:
.LFB5913:
	.loc 19 85 19
	.cfi_startproc
	pushq	%rbp
	.seh_pushreg	%rbp
	.cfi_def_cfa_offset 16
	.cfi_offset 6, -16
	movq	%rsp, %rbp
	.seh_setframe	%rbp, 0
	.cfi_def_cfa_register 6
	subq	$32, %rsp
	.seh_stackalloc	32
	.seh_endprologue
	movq	%rcx, 16(%rbp)
	.loc 19 85 51
	movq	16(%rbp), %rax
	movq	8(%rax), %rax
	movq	%rax, %rcx
	call	_ZSt12__to_addressISt23_Sp_counted_ptr_inplaceI11StartScreenSaIS1_ELN9__gnu_cxx12_Lock_policyE2EEEPT_S7_
	.loc 19 85 61
	addq	$32, %rsp
	popq	%rbp
	.cfi_restore 6
	.cfi_def_cfa 7, 8
	ret
	.cfi_endproc
.LFE5913:
	.seh_endproc
	.section	.text$_ZSt4moveIRKSaI11StartScreenEEONSt16remove_referenceIT_E4typeEOS5_,"x"
	.linkonce discard
	.globl	_ZSt4moveIRKSaI11StartScreenEEONSt16remove_referenceIT_E4typeEOS5_
	.def	_ZSt4moveIRKSaI11StartScreenEEONSt16remove_referenceIT_E4typeEOS5_;	.scl	2;	.type	32;	.endef
	.seh_proc	_ZSt4moveIRKSaI11StartScreenEEONSt16remove_referenceIT_E4typeEOS5_
_ZSt4moveIRKSaI11StartScreenEEONSt16remove_referenceIT_E4typeEOS5_:
.LFB5914:
	.loc 13 99 5
	.cfi_startproc
	pushq	%rbp
	.seh_pushreg	%rbp
	.cfi_def_cfa_offset 16
	.cfi_offset 6, -16
	movq	%rsp, %rbp
	.seh_setframe	%rbp, 0
	.cfi_def_cfa_register 6
	.seh_endprologue
	movq	%rcx, 16(%rbp)
	.loc 13 100 74
	movq	16(%rbp), %rax
	.loc 13 100 77
	popq	%rbp
	.cfi_restore 6
	.cfi_def_cfa 7, 8
	ret
	.cfi_endproc
.LFE5914:
	.seh_endproc
	.section	.text$_ZNSaI11StartScreenEC2ERKS0_,"x"
	.linkonce discard
	.align 2
	.globl	_ZNSaI11StartScreenEC2ERKS0_
	.def	_ZNSaI11StartScreenEC2ERKS0_;	.scl	2;	.type	32;	.endef
	.seh_proc	_ZNSaI11StartScreenEC2ERKS0_
_ZNSaI11StartScreenEC2ERKS0_:
.LFB5916:
	.loc 12 133 7
	.cfi_startproc
	pushq	%rbp
	.seh_pushreg	%rbp
	.cfi_def_cfa_offset 16
	.cfi_offset 6, -16
	movq	%rsp, %rbp
	.seh_setframe	%rbp, 0
	.cfi_def_cfa_register 6
	subq	$32, %rsp
	.seh_stackalloc	32
	.seh_endprologue
	movq	%rcx, 16(%rbp)
	movq	%rdx, 24(%rbp)
.LBB47:
	.loc 12 134 34
	movq	24(%rbp), %rax
	movq	%rax, %rdx
	movq	16(%rbp), %rcx
	call	_ZN9__gnu_cxx13new_allocatorI11StartScreenEC2ERKS2_
.LBE47:
	.loc 12 134 38
	nop
	addq	$32, %rsp
	popq	%rbp
	.cfi_restore 6
	.cfi_def_cfa 7, 8
	ret
	.cfi_endproc
.LFE5916:
	.seh_endproc
	.section	.text$_ZNSaI11StartScreenEC1ERKS0_,"x"
	.linkonce discard
	.align 2
	.globl	_ZNSaI11StartScreenEC1ERKS0_
	.def	_ZNSaI11StartScreenEC1ERKS0_;	.scl	2;	.type	32;	.endef
	.seh_proc	_ZNSaI11StartScreenEC1ERKS0_
_ZNSaI11StartScreenEC1ERKS0_:
.LFB5917:
	.loc 12 133 7
	.cfi_startproc
	pushq	%rbp
	.seh_pushreg	%rbp
	.cfi_def_cfa_offset 16
	.cfi_offset 6, -16
	movq	%rsp, %rbp
	.seh_setframe	%rbp, 0
	.cfi_def_cfa_register 6
	subq	$32, %rsp
	.seh_stackalloc	32
	.seh_endprologue
	movq	%rcx, 16(%rbp)
	movq	%rdx, 24(%rbp)
.LBB48:
	.loc 12 134 34
	movq	24(%rbp), %rax
	movq	%rax, %rdx
	movq	16(%rbp), %rcx
	call	_ZN9__gnu_cxx13new_allocatorI11StartScreenEC2ERKS2_
.LBE48:
	.loc 12 134 38
	nop
	addq	$32, %rsp
	popq	%rbp
	.cfi_restore 6
	.cfi_def_cfa 7, 8
	ret
	.cfi_endproc
.LFE5917:
	.seh_endproc
	.section	.text$_ZNSt14_Sp_ebo_helperILi0ESaI11StartScreenELb1EED2Ev,"x"
	.linkonce discard
	.align 2
	.globl	_ZNSt14_Sp_ebo_helperILi0ESaI11StartScreenELb1EED2Ev
	.def	_ZNSt14_Sp_ebo_helperILi0ESaI11StartScreenELb1EED2Ev;	.scl	2;	.type	32;	.endef
	.seh_proc	_ZNSt14_Sp_ebo_helperILi0ESaI11StartScreenELb1EED2Ev
_ZNSt14_Sp_ebo_helperILi0ESaI11StartScreenELb1EED2Ev:
.LFB5921:
	.loc 5 418 12
	.cfi_startproc
	pushq	%rbp
	.seh_pushreg	%rbp
	.cfi_def_cfa_offset 16
	.cfi_offset 6, -16
	movq	%rsp, %rbp
	.seh_setframe	%rbp, 0
	.cfi_def_cfa_register 6
	subq	$32, %rsp
	.seh_stackalloc	32
	.seh_endprologue
	movq	%rcx, 16(%rbp)
.LBB49:
	.loc 5 418 12
	movq	16(%rbp), %rcx
	call	_ZNSaI11StartScreenED2Ev
.LBE49:
	nop
	addq	$32, %rsp
	popq	%rbp
	.cfi_restore 6
	.cfi_def_cfa 7, 8
	ret
	.cfi_endproc
.LFE5921:
	.seh_endproc
	.section	.text$_ZNSt23_Sp_counted_ptr_inplaceI11StartScreenSaIS0_ELN9__gnu_cxx12_Lock_policyE2EE5_ImplD1Ev,"x"
	.linkonce discard
	.align 2
	.globl	_ZNSt23_Sp_counted_ptr_inplaceI11StartScreenSaIS0_ELN9__gnu_cxx12_Lock_policyE2EE5_ImplD1Ev
	.def	_ZNSt23_Sp_counted_ptr_inplaceI11StartScreenSaIS0_ELN9__gnu_cxx12_Lock_policyE2EE5_ImplD1Ev;	.scl	2;	.type	32;	.endef
	.seh_proc	_ZNSt23_Sp_counted_ptr_inplaceI11StartScreenSaIS0_ELN9__gnu_cxx12_Lock_policyE2EE5_ImplD1Ev
_ZNSt23_Sp_counted_ptr_inplaceI11StartScreenSaIS0_ELN9__gnu_cxx12_Lock_policyE2EE5_ImplD1Ev:
.LFB5924:
	.loc 5 528 13
	.cfi_startproc
	pushq	%rbp
	.seh_pushreg	%rbp
	.cfi_def_cfa_offset 16
	.cfi_offset 6, -16
	movq	%rsp, %rbp
	.seh_setframe	%rbp, 0
	.cfi_def_cfa_register 6
	subq	$32, %rsp
	.seh_stackalloc	32
	.seh_endprologue
	movq	%rcx, 16(%rbp)
.LBB50:
	.loc 5 528 13
	movq	16(%rbp), %rcx
	call	_ZNSt14_Sp_ebo_helperILi0ESaI11StartScreenELb1EED2Ev
.LBE50:
	nop
	addq	$32, %rsp
	popq	%rbp
	.cfi_restore 6
	.cfi_def_cfa 7, 8
	ret
	.cfi_endproc
.LFE5924:
	.seh_endproc
	.section	.text$_ZNSt23_Sp_counted_ptr_inplaceI11StartScreenSaIS0_ELN9__gnu_cxx12_Lock_policyE2EEC1IJRKSt6vectorINSt7__cxx1112basic_stringIcSt11char_traitsIcESaIcEEESaISC_EEEEES1_DpOT_,"x"
	.linkonce discard
	.align 2
	.globl	_ZNSt23_Sp_counted_ptr_inplaceI11StartScreenSaIS0_ELN9__gnu_cxx12_Lock_policyE2EEC1IJRKSt6vectorINSt7__cxx1112basic_stringIcSt11char_traitsIcESaIcEEESaISC_EEEEES1_DpOT_
	.def	_ZNSt23_Sp_counted_ptr_inplaceI11StartScreenSaIS0_ELN9__gnu_cxx12_Lock_policyE2EEC1IJRKSt6vectorINSt7__cxx1112basic_stringIcSt11char_traitsIcESaIcEEESaISC_EEEEES1_DpOT_;	.scl	2;	.type	32;	.endef
	.seh_proc	_ZNSt23_Sp_counted_ptr_inplaceI11StartScreenSaIS0_ELN9__gnu_cxx12_Lock_policyE2EEC1IJRKSt6vectorINSt7__cxx1112basic_stringIcSt11char_traitsIcESaIcEEESaISC_EEEEES1_DpOT_
_ZNSt23_Sp_counted_ptr_inplaceI11StartScreenSaIS0_ELN9__gnu_cxx12_Lock_policyE2EEC1IJRKSt6vectorINSt7__cxx1112basic_stringIcSt11char_traitsIcESaIcEEESaISC_EEEEES1_DpOT_:
.LFB5926:
	.loc 5 544 2
	.cfi_startproc
	pushq	%rbp
	.seh_pushreg	%rbp
	.cfi_def_cfa_offset 16
	.cfi_offset 6, -16
	pushq	%rbx
	.seh_pushreg	%rbx
	.cfi_def_cfa_offset 24
	.cfi_offset 3, -24
	subq	$56, %rsp
	.seh_stackalloc	56
	.cfi_def_cfa_offset 80
	leaq	128(%rsp), %rbp
	.seh_setframe	%rbp, 128
	.cfi_def_cfa 6, -48
	.seh_endprologue
	movq	%rcx, -48(%rbp)
	movq	%rdx, -40(%rbp)
	movq	%r8, -32(%rbp)
.LBB51:
	.loc 5 545 15
	movq	-48(%rbp), %rax
	movq	%rax, %rcx
	call	_ZNSt16_Sp_counted_baseILN9__gnu_cxx12_Lock_policyE2EEC2Ev
	leaq	16+_ZTVSt23_Sp_counted_ptr_inplaceI11StartScreenSaIS0_ELN9__gnu_cxx12_Lock_policyE2EE(%rip), %rdx
	movq	-48(%rbp), %rax
	movq	%rdx, (%rax)
	movq	-48(%rbp), %rax
	leaq	16(%rax), %rbx
	movq	-40(%rbp), %rdx
	leaq	-81(%rbp), %rax
	movq	%rax, %rcx
	call	_ZNSaI11StartScreenEC1ERKS0_
	leaq	-81(%rbp), %rax
	movq	%rax, %rdx
	movq	%rbx, %rcx
	call	_ZNSt23_Sp_counted_ptr_inplaceI11StartScreenSaIS0_ELN9__gnu_cxx12_Lock_policyE2EE5_ImplC1ES1_
	leaq	-81(%rbp), %rax
	movq	%rax, %rcx
	call	_ZNSaI11StartScreenED1Ev
	.loc 5 549 39
	movq	-32(%rbp), %rax
	movq	%rax, %rcx
	call	_ZSt7forwardIRKSt6vectorINSt7__cxx1112basic_stringIcSt11char_traitsIcESaIcEEESaIS6_EEEOT_RNSt16remove_referenceISB_E4typeE
	movq	%rax, %rbx
	movq	-48(%rbp), %rcx
	call	_ZNSt23_Sp_counted_ptr_inplaceI11StartScreenSaIS0_ELN9__gnu_cxx12_Lock_policyE2EE6_M_ptrEv
	movq	%rax, %rdx
	movq	-40(%rbp), %rax
	movq	%rbx, %r8
	movq	%rax, %rcx
.LEHB25:
	call	_ZNSt16allocator_traitsISaI11StartScreenEE9constructIS0_JRKSt6vectorINSt7__cxx1112basic_stringIcSt11char_traitsIcESaIcEEESaISA_EEEEEvRS1_PT_DpOT0_
.LEHE25:
.LBE51:
	.loc 5 551 2
	jmp	.L245
.L244:
	movq	%rax, %rbx
.LBB52:
	.loc 5 545 15
	movq	-48(%rbp), %rax
	addq	$16, %rax
	movq	%rax, %rcx
	call	_ZNSt23_Sp_counted_ptr_inplaceI11StartScreenSaIS0_ELN9__gnu_cxx12_Lock_policyE2EE5_ImplD1Ev
	movq	-48(%rbp), %rax
	movq	%rax, %rcx
	call	_ZNSt16_Sp_counted_baseILN9__gnu_cxx12_Lock_policyE2EED2Ev
	movq	%rbx, %rax
	movq	%rax, %rcx
.LEHB26:
	call	_Unwind_Resume
	nop
.LEHE26:
.L245:
.LBE52:
	.loc 5 551 2
	addq	$56, %rsp
	popq	%rbx
	.cfi_restore 3
	popq	%rbp
	.cfi_restore 6
	.cfi_def_cfa 7, -40
	ret
	.cfi_endproc
.LFE5926:
	.seh_handler	__gxx_personality_seh0, @unwind, @except
	.seh_handlerdata
.LLSDA5926:
	.byte	0xff
	.byte	0xff
	.byte	0x1
	.uleb128 .LLSDACSE5926-.LLSDACSB5926
.LLSDACSB5926:
	.uleb128 .LEHB25-.LFB5926
	.uleb128 .LEHE25-.LEHB25
	.uleb128 .L244-.LFB5926
	.uleb128 0
	.uleb128 .LEHB26-.LFB5926
	.uleb128 .LEHE26-.LEHB26
	.uleb128 0
	.uleb128 0
.LLSDACSE5926:
	.section	.text$_ZNSt23_Sp_counted_ptr_inplaceI11StartScreenSaIS0_ELN9__gnu_cxx12_Lock_policyE2EEC1IJRKSt6vectorINSt7__cxx1112basic_stringIcSt11char_traitsIcESaIcEEESaISC_EEEEES1_DpOT_,"x"
	.linkonce discard
	.seh_endproc
	.section	.text$_ZNSt15__allocated_ptrISaISt23_Sp_counted_ptr_inplaceI11StartScreenSaIS1_ELN9__gnu_cxx12_Lock_policyE2EEEEaSEDn,"x"
	.linkonce discard
	.align 2
	.globl	_ZNSt15__allocated_ptrISaISt23_Sp_counted_ptr_inplaceI11StartScreenSaIS1_ELN9__gnu_cxx12_Lock_policyE2EEEEaSEDn
	.def	_ZNSt15__allocated_ptrISaISt23_Sp_counted_ptr_inplaceI11StartScreenSaIS1_ELN9__gnu_cxx12_Lock_policyE2EEEEaSEDn;	.scl	2;	.type	32;	.endef
	.seh_proc	_ZNSt15__allocated_ptrISaISt23_Sp_counted_ptr_inplaceI11StartScreenSaIS1_ELN9__gnu_cxx12_Lock_policyE2EEEEaSEDn
_ZNSt15__allocated_ptrISaISt23_Sp_counted_ptr_inplaceI11StartScreenSaIS1_ELN9__gnu_cxx12_Lock_policyE2EEEEaSEDn:
.LFB5927:
	.loc 19 78 7
	.cfi_startproc
	pushq	%rbp
	.seh_pushreg	%rbp
	.cfi_def_cfa_offset 16
	.cfi_offset 6, -16
	movq	%rsp, %rbp
	.seh_setframe	%rbp, 0
	.cfi_def_cfa_register 6
	.seh_endprologue
	movq	%rcx, 16(%rbp)
	movq	%rdx, 24(%rbp)
	.loc 19 80 2
	movq	16(%rbp), %rax
	movq	$0, 8(%rax)
	.loc 19 81 10
	movq	16(%rbp), %rax
	.loc 19 82 7
	popq	%rbp
	.cfi_restore 6
	.cfi_def_cfa 7, 8
	ret
	.cfi_endproc
.LFE5927:
	.seh_endproc
	.section	.text$_ZNSaISt23_Sp_counted_ptr_inplaceI5LevelSaIS0_ELN9__gnu_cxx12_Lock_policyE2EEEC1IS0_EERKSaIT_E,"x"
	.linkonce discard
	.align 2
	.globl	_ZNSaISt23_Sp_counted_ptr_inplaceI5LevelSaIS0_ELN9__gnu_cxx12_Lock_policyE2EEEC1IS0_EERKSaIT_E
	.def	_ZNSaISt23_Sp_counted_ptr_inplaceI5LevelSaIS0_ELN9__gnu_cxx12_Lock_policyE2EEEC1IS0_EERKSaIT_E;	.scl	2;	.type	32;	.endef
	.seh_proc	_ZNSaISt23_Sp_counted_ptr_inplaceI5LevelSaIS0_ELN9__gnu_cxx12_Lock_policyE2EEEC1IS0_EERKSaIT_E
_ZNSaISt23_Sp_counted_ptr_inplaceI5LevelSaIS0_ELN9__gnu_cxx12_Lock_policyE2EEEC1IS0_EERKSaIT_E:
.LFB5930:
	.loc 12 137 2
	.cfi_startproc
	pushq	%rbp
	.seh_pushreg	%rbp
	.cfi_def_cfa_offset 16
	.cfi_offset 6, -16
	movq	%rsp, %rbp
	.seh_setframe	%rbp, 0
	.cfi_def_cfa_register 6
	subq	$32, %rsp
	.seh_stackalloc	32
	.seh_endprologue
	movq	%rcx, 16(%rbp)
	movq	%rdx, 24(%rbp)
.LBB53:
	.loc 12 137 44
	movq	16(%rbp), %rcx
	call	_ZN9__gnu_cxx13new_allocatorISt23_Sp_counted_ptr_inplaceI5LevelSaIS2_ELNS_12_Lock_policyE2EEEC2Ev
.LBE53:
	.loc 12 137 46
	nop
	addq	$32, %rsp
	popq	%rbp
	.cfi_restore 6
	.cfi_def_cfa 7, 8
	ret
	.cfi_endproc
.LFE5930:
	.seh_endproc
	.section	.text$_ZNSaISt23_Sp_counted_ptr_inplaceI5LevelSaIS0_ELN9__gnu_cxx12_Lock_policyE2EEED1Ev,"x"
	.linkonce discard
	.align 2
	.globl	_ZNSaISt23_Sp_counted_ptr_inplaceI5LevelSaIS0_ELN9__gnu_cxx12_Lock_policyE2EEED1Ev
	.def	_ZNSaISt23_Sp_counted_ptr_inplaceI5LevelSaIS0_ELN9__gnu_cxx12_Lock_policyE2EEED1Ev;	.scl	2;	.type	32;	.endef
	.seh_proc	_ZNSaISt23_Sp_counted_ptr_inplaceI5LevelSaIS0_ELN9__gnu_cxx12_Lock_policyE2EEED1Ev
_ZNSaISt23_Sp_counted_ptr_inplaceI5LevelSaIS0_ELN9__gnu_cxx12_Lock_policyE2EEED1Ev:
.LFB5933:
	.loc 12 139 7
	.cfi_startproc
	pushq	%rbp
	.seh_pushreg	%rbp
	.cfi_def_cfa_offset 16
	.cfi_offset 6, -16
	movq	%rsp, %rbp
	.seh_setframe	%rbp, 0
	.cfi_def_cfa_register 6
	subq	$32, %rsp
	.seh_stackalloc	32
	.seh_endprologue
	movq	%rcx, 16(%rbp)
.LBB54:
	.loc 12 139 30
	movq	16(%rbp), %rcx
	call	_ZN9__gnu_cxx13new_allocatorISt23_Sp_counted_ptr_inplaceI5LevelSaIS2_ELNS_12_Lock_policyE2EEED2Ev
.LBE54:
	nop
	addq	$32, %rsp
	popq	%rbp
	.cfi_restore 6
	.cfi_def_cfa 7, 8
	ret
	.cfi_endproc
.LFE5933:
	.seh_endproc
	.section	.text$_ZSt18__allocate_guardedISaISt23_Sp_counted_ptr_inplaceI5LevelSaIS1_ELN9__gnu_cxx12_Lock_policyE2EEEESt15__allocated_ptrIT_ERS8_,"x"
	.linkonce discard
	.globl	_ZSt18__allocate_guardedISaISt23_Sp_counted_ptr_inplaceI5LevelSaIS1_ELN9__gnu_cxx12_Lock_policyE2EEEESt15__allocated_ptrIT_ERS8_
	.def	_ZSt18__allocate_guardedISaISt23_Sp_counted_ptr_inplaceI5LevelSaIS1_ELN9__gnu_cxx12_Lock_policyE2EEEESt15__allocated_ptrIT_ERS8_;	.scl	2;	.type	32;	.endef
	.seh_proc	_ZSt18__allocate_guardedISaISt23_Sp_counted_ptr_inplaceI5LevelSaIS1_ELN9__gnu_cxx12_Lock_policyE2EEEESt15__allocated_ptrIT_ERS8_
_ZSt18__allocate_guardedISaISt23_Sp_counted_ptr_inplaceI5LevelSaIS1_ELN9__gnu_cxx12_Lock_policyE2EEEESt15__allocated_ptrIT_ERS8_:
.LFB5934:
	.loc 19 95 5
	.cfi_startproc
	pushq	%rbp
	.seh_pushreg	%rbp
	.cfi_def_cfa_offset 16
	.cfi_offset 6, -16
	movq	%rsp, %rbp
	.seh_setframe	%rbp, 0
	.cfi_def_cfa_register 6
	subq	$32, %rsp
	.seh_stackalloc	32
	.seh_endprologue
	movq	%rcx, 16(%rbp)
	movq	%rdx, 24(%rbp)
	.loc 19 97 69
	movq	24(%rbp), %rax
	movl	$1, %edx
	movq	%rax, %rcx
	call	_ZNSt16allocator_traitsISaISt23_Sp_counted_ptr_inplaceI5LevelSaIS1_ELN9__gnu_cxx12_Lock_policyE2EEEE8allocateERS6_y
	movq	%rax, %rdx
	movq	24(%rbp), %rax
	movq	%rdx, %r8
	movq	%rax, %rdx
	movq	16(%rbp), %rcx
	call	_ZNSt15__allocated_ptrISaISt23_Sp_counted_ptr_inplaceI5LevelSaIS1_ELN9__gnu_cxx12_Lock_policyE2EEEEC1ERS6_PS5_
	.loc 19 98 5
	movq	16(%rbp), %rax
	addq	$32, %rsp
	popq	%rbp
	.cfi_restore 6
	.cfi_def_cfa 7, 8
	ret
	.cfi_endproc
.LFE5934:
	.seh_endproc
	.section	.text$_ZNSt15__allocated_ptrISaISt23_Sp_counted_ptr_inplaceI5LevelSaIS1_ELN9__gnu_cxx12_Lock_policyE2EEEED1Ev,"x"
	.linkonce discard
	.align 2
	.globl	_ZNSt15__allocated_ptrISaISt23_Sp_counted_ptr_inplaceI5LevelSaIS1_ELN9__gnu_cxx12_Lock_policyE2EEEED1Ev
	.def	_ZNSt15__allocated_ptrISaISt23_Sp_counted_ptr_inplaceI5LevelSaIS1_ELN9__gnu_cxx12_Lock_policyE2EEEED1Ev;	.scl	2;	.type	32;	.endef
	.seh_proc	_ZNSt15__allocated_ptrISaISt23_Sp_counted_ptr_inplaceI5LevelSaIS1_ELN9__gnu_cxx12_Lock_policyE2EEEED1Ev
_ZNSt15__allocated_ptrISaISt23_Sp_counted_ptr_inplaceI5LevelSaIS1_ELN9__gnu_cxx12_Lock_policyE2EEEED1Ev:
.LFB5937:
	.loc 19 70 7
	.cfi_startproc
	pushq	%rbp
	.seh_pushreg	%rbp
	.cfi_def_cfa_offset 16
	.cfi_offset 6, -16
	movq	%rsp, %rbp
	.seh_setframe	%rbp, 0
	.cfi_def_cfa_register 6
	subq	$32, %rsp
	.seh_stackalloc	32
	.seh_endprologue
	movq	%rcx, 16(%rbp)
.LBB55:
	.loc 19 72 6
	movq	16(%rbp), %rax
	movq	8(%rax), %rax
	.loc 19 72 2
	testq	%rax, %rax
	je	.L254
	.loc 19 73 45
	movq	16(%rbp), %rax
	movq	8(%rax), %rdx
	.loc 19 73 47
	movq	16(%rbp), %rax
	movq	(%rax), %rax
	.loc 19 73 45
	movl	$1, %r8d
	movq	%rax, %rcx
	call	_ZNSt16allocator_traitsISaISt23_Sp_counted_ptr_inplaceI5LevelSaIS1_ELN9__gnu_cxx12_Lock_policyE2EEEE10deallocateERS6_PS5_y
.L254:
.LBE55:
	.loc 19 74 7
	nop
	addq	$32, %rsp
	popq	%rbp
	.cfi_restore 6
	.cfi_def_cfa 7, 8
	ret
	.cfi_endproc
.LFE5937:
	.seh_handler	__gxx_personality_seh0, @unwind, @except
	.seh_handlerdata
.LLSDA5937:
	.byte	0xff
	.byte	0xff
	.byte	0x1
	.uleb128 .LLSDACSE5937-.LLSDACSB5937
.LLSDACSB5937:
.LLSDACSE5937:
	.section	.text$_ZNSt15__allocated_ptrISaISt23_Sp_counted_ptr_inplaceI5LevelSaIS1_ELN9__gnu_cxx12_Lock_policyE2EEEED1Ev,"x"
	.linkonce discard
	.seh_endproc
	.section	.text$_ZNSt15__allocated_ptrISaISt23_Sp_counted_ptr_inplaceI5LevelSaIS1_ELN9__gnu_cxx12_Lock_policyE2EEEE3getEv,"x"
	.linkonce discard
	.align 2
	.globl	_ZNSt15__allocated_ptrISaISt23_Sp_counted_ptr_inplaceI5LevelSaIS1_ELN9__gnu_cxx12_Lock_policyE2EEEE3getEv
	.def	_ZNSt15__allocated_ptrISaISt23_Sp_counted_ptr_inplaceI5LevelSaIS1_ELN9__gnu_cxx12_Lock_policyE2EEEE3getEv;	.scl	2;	.type	32;	.endef
	.seh_proc	_ZNSt15__allocated_ptrISaISt23_Sp_counted_ptr_inplaceI5LevelSaIS1_ELN9__gnu_cxx12_Lock_policyE2EEEE3getEv
_ZNSt15__allocated_ptrISaISt23_Sp_counted_ptr_inplaceI5LevelSaIS1_ELN9__gnu_cxx12_Lock_policyE2EEEE3getEv:
.LFB5941:
	.loc 19 85 19
	.cfi_startproc
	pushq	%rbp
	.seh_pushreg	%rbp
	.cfi_def_cfa_offset 16
	.cfi_offset 6, -16
	movq	%rsp, %rbp
	.seh_setframe	%rbp, 0
	.cfi_def_cfa_register 6
	subq	$32, %rsp
	.seh_stackalloc	32
	.seh_endprologue
	movq	%rcx, 16(%rbp)
	.loc 19 85 51
	movq	16(%rbp), %rax
	movq	8(%rax), %rax
	movq	%rax, %rcx
	call	_ZSt12__to_addressISt23_Sp_counted_ptr_inplaceI5LevelSaIS1_ELN9__gnu_cxx12_Lock_policyE2EEEPT_S7_
	.loc 19 85 61
	addq	$32, %rsp
	popq	%rbp
	.cfi_restore 6
	.cfi_def_cfa 7, 8
	ret
	.cfi_endproc
.LFE5941:
	.seh_endproc
	.section	.text$_ZSt4moveIRKSaI5LevelEEONSt16remove_referenceIT_E4typeEOS5_,"x"
	.linkonce discard
	.globl	_ZSt4moveIRKSaI5LevelEEONSt16remove_referenceIT_E4typeEOS5_
	.def	_ZSt4moveIRKSaI5LevelEEONSt16remove_referenceIT_E4typeEOS5_;	.scl	2;	.type	32;	.endef
	.seh_proc	_ZSt4moveIRKSaI5LevelEEONSt16remove_referenceIT_E4typeEOS5_
_ZSt4moveIRKSaI5LevelEEONSt16remove_referenceIT_E4typeEOS5_:
.LFB5942:
	.loc 13 99 5
	.cfi_startproc
	pushq	%rbp
	.seh_pushreg	%rbp
	.cfi_def_cfa_offset 16
	.cfi_offset 6, -16
	movq	%rsp, %rbp
	.seh_setframe	%rbp, 0
	.cfi_def_cfa_register 6
	.seh_endprologue
	movq	%rcx, 16(%rbp)
	.loc 13 100 74
	movq	16(%rbp), %rax
	.loc 13 100 77
	popq	%rbp
	.cfi_restore 6
	.cfi_def_cfa 7, 8
	ret
	.cfi_endproc
.LFE5942:
	.seh_endproc
	.section	.text$_ZNSaI5LevelEC2ERKS0_,"x"
	.linkonce discard
	.align 2
	.globl	_ZNSaI5LevelEC2ERKS0_
	.def	_ZNSaI5LevelEC2ERKS0_;	.scl	2;	.type	32;	.endef
	.seh_proc	_ZNSaI5LevelEC2ERKS0_
_ZNSaI5LevelEC2ERKS0_:
.LFB5944:
	.loc 12 133 7
	.cfi_startproc
	pushq	%rbp
	.seh_pushreg	%rbp
	.cfi_def_cfa_offset 16
	.cfi_offset 6, -16
	movq	%rsp, %rbp
	.seh_setframe	%rbp, 0
	.cfi_def_cfa_register 6
	subq	$32, %rsp
	.seh_stackalloc	32
	.seh_endprologue
	movq	%rcx, 16(%rbp)
	movq	%rdx, 24(%rbp)
.LBB56:
	.loc 12 134 34
	movq	24(%rbp), %rax
	movq	%rax, %rdx
	movq	16(%rbp), %rcx
	call	_ZN9__gnu_cxx13new_allocatorI5LevelEC2ERKS2_
.LBE56:
	.loc 12 134 38
	nop
	addq	$32, %rsp
	popq	%rbp
	.cfi_restore 6
	.cfi_def_cfa 7, 8
	ret
	.cfi_endproc
.LFE5944:
	.seh_endproc
	.section	.text$_ZNSaI5LevelEC1ERKS0_,"x"
	.linkonce discard
	.align 2
	.globl	_ZNSaI5LevelEC1ERKS0_
	.def	_ZNSaI5LevelEC1ERKS0_;	.scl	2;	.type	32;	.endef
	.seh_proc	_ZNSaI5LevelEC1ERKS0_
_ZNSaI5LevelEC1ERKS0_:
.LFB5945:
	.loc 12 133 7
	.cfi_startproc
	pushq	%rbp
	.seh_pushreg	%rbp
	.cfi_def_cfa_offset 16
	.cfi_offset 6, -16
	movq	%rsp, %rbp
	.seh_setframe	%rbp, 0
	.cfi_def_cfa_register 6
	subq	$32, %rsp
	.seh_stackalloc	32
	.seh_endprologue
	movq	%rcx, 16(%rbp)
	movq	%rdx, 24(%rbp)
.LBB57:
	.loc 12 134 34
	movq	24(%rbp), %rax
	movq	%rax, %rdx
	movq	16(%rbp), %rcx
	call	_ZN9__gnu_cxx13new_allocatorI5LevelEC2ERKS2_
.LBE57:
	.loc 12 134 38
	nop
	addq	$32, %rsp
	popq	%rbp
	.cfi_restore 6
	.cfi_def_cfa 7, 8
	ret
	.cfi_endproc
.LFE5945:
	.seh_endproc
	.section	.text$_ZNSt14_Sp_ebo_helperILi0ESaI5LevelELb1EED2Ev,"x"
	.linkonce discard
	.align 2
	.globl	_ZNSt14_Sp_ebo_helperILi0ESaI5LevelELb1EED2Ev
	.def	_ZNSt14_Sp_ebo_helperILi0ESaI5LevelELb1EED2Ev;	.scl	2;	.type	32;	.endef
	.seh_proc	_ZNSt14_Sp_ebo_helperILi0ESaI5LevelELb1EED2Ev
_ZNSt14_Sp_ebo_helperILi0ESaI5LevelELb1EED2Ev:
.LFB5949:
	.loc 5 418 12
	.cfi_startproc
	pushq	%rbp
	.seh_pushreg	%rbp
	.cfi_def_cfa_offset 16
	.cfi_offset 6, -16
	movq	%rsp, %rbp
	.seh_setframe	%rbp, 0
	.cfi_def_cfa_register 6
	subq	$32, %rsp
	.seh_stackalloc	32
	.seh_endprologue
	movq	%rcx, 16(%rbp)
.LBB58:
	.loc 5 418 12
	movq	16(%rbp), %rcx
	call	_ZNSaI5LevelED2Ev
.LBE58:
	nop
	addq	$32, %rsp
	popq	%rbp
	.cfi_restore 6
	.cfi_def_cfa 7, 8
	ret
	.cfi_endproc
.LFE5949:
	.seh_endproc
	.section	.text$_ZNSt23_Sp_counted_ptr_inplaceI5LevelSaIS0_ELN9__gnu_cxx12_Lock_policyE2EE5_ImplD1Ev,"x"
	.linkonce discard
	.align 2
	.globl	_ZNSt23_Sp_counted_ptr_inplaceI5LevelSaIS0_ELN9__gnu_cxx12_Lock_policyE2EE5_ImplD1Ev
	.def	_ZNSt23_Sp_counted_ptr_inplaceI5LevelSaIS0_ELN9__gnu_cxx12_Lock_policyE2EE5_ImplD1Ev;	.scl	2;	.type	32;	.endef
	.seh_proc	_ZNSt23_Sp_counted_ptr_inplaceI5LevelSaIS0_ELN9__gnu_cxx12_Lock_policyE2EE5_ImplD1Ev
_ZNSt23_Sp_counted_ptr_inplaceI5LevelSaIS0_ELN9__gnu_cxx12_Lock_policyE2EE5_ImplD1Ev:
.LFB5952:
	.loc 5 528 13
	.cfi_startproc
	pushq	%rbp
	.seh_pushreg	%rbp
	.cfi_def_cfa_offset 16
	.cfi_offset 6, -16
	movq	%rsp, %rbp
	.seh_setframe	%rbp, 0
	.cfi_def_cfa_register 6
	subq	$32, %rsp
	.seh_stackalloc	32
	.seh_endprologue
	movq	%rcx, 16(%rbp)
.LBB59:
	.loc 5 528 13
	movq	16(%rbp), %rcx
	call	_ZNSt14_Sp_ebo_helperILi0ESaI5LevelELb1EED2Ev
.LBE59:
	nop
	addq	$32, %rsp
	popq	%rbp
	.cfi_restore 6
	.cfi_def_cfa 7, 8
	ret
	.cfi_endproc
.LFE5952:
	.seh_endproc
	.section	.text$_ZNSt23_Sp_counted_ptr_inplaceI5LevelSaIS0_ELN9__gnu_cxx12_Lock_policyE2EEC1IJRKSt6vectorINSt7__cxx1112basic_stringIcSt11char_traitsIcESaIcEEESaISC_EEEEES1_DpOT_,"x"
	.linkonce discard
	.align 2
	.globl	_ZNSt23_Sp_counted_ptr_inplaceI5LevelSaIS0_ELN9__gnu_cxx12_Lock_policyE2EEC1IJRKSt6vectorINSt7__cxx1112basic_stringIcSt11char_traitsIcESaIcEEESaISC_EEEEES1_DpOT_
	.def	_ZNSt23_Sp_counted_ptr_inplaceI5LevelSaIS0_ELN9__gnu_cxx12_Lock_policyE2EEC1IJRKSt6vectorINSt7__cxx1112basic_stringIcSt11char_traitsIcESaIcEEESaISC_EEEEES1_DpOT_;	.scl	2;	.type	32;	.endef
	.seh_proc	_ZNSt23_Sp_counted_ptr_inplaceI5LevelSaIS0_ELN9__gnu_cxx12_Lock_policyE2EEC1IJRKSt6vectorINSt7__cxx1112basic_stringIcSt11char_traitsIcESaIcEEESaISC_EEEEES1_DpOT_
_ZNSt23_Sp_counted_ptr_inplaceI5LevelSaIS0_ELN9__gnu_cxx12_Lock_policyE2EEC1IJRKSt6vectorINSt7__cxx1112basic_stringIcSt11char_traitsIcESaIcEEESaISC_EEEEES1_DpOT_:
.LFB5954:
	.loc 5 544 2
	.cfi_startproc
	pushq	%rbp
	.seh_pushreg	%rbp
	.cfi_def_cfa_offset 16
	.cfi_offset 6, -16
	pushq	%rbx
	.seh_pushreg	%rbx
	.cfi_def_cfa_offset 24
	.cfi_offset 3, -24
	subq	$56, %rsp
	.seh_stackalloc	56
	.cfi_def_cfa_offset 80
	leaq	128(%rsp), %rbp
	.seh_setframe	%rbp, 128
	.cfi_def_cfa 6, -48
	.seh_endprologue
	movq	%rcx, -48(%rbp)
	movq	%rdx, -40(%rbp)
	movq	%r8, -32(%rbp)
.LBB60:
	.loc 5 545 15
	movq	-48(%rbp), %rax
	movq	%rax, %rcx
	call	_ZNSt16_Sp_counted_baseILN9__gnu_cxx12_Lock_policyE2EEC2Ev
	leaq	16+_ZTVSt23_Sp_counted_ptr_inplaceI5LevelSaIS0_ELN9__gnu_cxx12_Lock_policyE2EE(%rip), %rdx
	movq	-48(%rbp), %rax
	movq	%rdx, (%rax)
	movq	-48(%rbp), %rax
	leaq	16(%rax), %rbx
	movq	-40(%rbp), %rdx
	leaq	-81(%rbp), %rax
	movq	%rax, %rcx
	call	_ZNSaI5LevelEC1ERKS0_
	leaq	-81(%rbp), %rax
	movq	%rax, %rdx
	movq	%rbx, %rcx
	call	_ZNSt23_Sp_counted_ptr_inplaceI5LevelSaIS0_ELN9__gnu_cxx12_Lock_policyE2EE5_ImplC1ES1_
	leaq	-81(%rbp), %rax
	movq	%rax, %rcx
	call	_ZNSaI5LevelED1Ev
	.loc 5 549 39
	movq	-32(%rbp), %rax
	movq	%rax, %rcx
	call	_ZSt7forwardIRKSt6vectorINSt7__cxx1112basic_stringIcSt11char_traitsIcESaIcEEESaIS6_EEEOT_RNSt16remove_referenceISB_E4typeE
	movq	%rax, %rbx
	movq	-48(%rbp), %rcx
	call	_ZNSt23_Sp_counted_ptr_inplaceI5LevelSaIS0_ELN9__gnu_cxx12_Lock_policyE2EE6_M_ptrEv
	movq	%rax, %rdx
	movq	-40(%rbp), %rax
	movq	%rbx, %r8
	movq	%rax, %rcx
.LEHB27:
	call	_ZNSt16allocator_traitsISaI5LevelEE9constructIS0_JRKSt6vectorINSt7__cxx1112basic_stringIcSt11char_traitsIcESaIcEEESaISA_EEEEEvRS1_PT_DpOT0_
.LEHE27:
.LBE60:
	.loc 5 551 2
	jmp	.L266
.L265:
	movq	%rax, %rbx
.LBB61:
	.loc 5 545 15
	movq	-48(%rbp), %rax
	addq	$16, %rax
	movq	%rax, %rcx
	call	_ZNSt23_Sp_counted_ptr_inplaceI5LevelSaIS0_ELN9__gnu_cxx12_Lock_policyE2EE5_ImplD1Ev
	movq	-48(%rbp), %rax
	movq	%rax, %rcx
	call	_ZNSt16_Sp_counted_baseILN9__gnu_cxx12_Lock_policyE2EED2Ev
	movq	%rbx, %rax
	movq	%rax, %rcx
.LEHB28:
	call	_Unwind_Resume
	nop
.LEHE28:
.L266:
.LBE61:
	.loc 5 551 2
	addq	$56, %rsp
	popq	%rbx
	.cfi_restore 3
	popq	%rbp
	.cfi_restore 6
	.cfi_def_cfa 7, -40
	ret
	.cfi_endproc
.LFE5954:
	.seh_handler	__gxx_personality_seh0, @unwind, @except
	.seh_handlerdata
.LLSDA5954:
	.byte	0xff
	.byte	0xff
	.byte	0x1
	.uleb128 .LLSDACSE5954-.LLSDACSB5954
.LLSDACSB5954:
	.uleb128 .LEHB27-.LFB5954
	.uleb128 .LEHE27-.LEHB27
	.uleb128 .L265-.LFB5954
	.uleb128 0
	.uleb128 .LEHB28-.LFB5954
	.uleb128 .LEHE28-.LEHB28
	.uleb128 0
	.uleb128 0
.LLSDACSE5954:
	.section	.text$_ZNSt23_Sp_counted_ptr_inplaceI5LevelSaIS0_ELN9__gnu_cxx12_Lock_policyE2EEC1IJRKSt6vectorINSt7__cxx1112basic_stringIcSt11char_traitsIcESaIcEEESaISC_EEEEES1_DpOT_,"x"
	.linkonce discard
	.seh_endproc
	.section	.text$_ZNSt15__allocated_ptrISaISt23_Sp_counted_ptr_inplaceI5LevelSaIS1_ELN9__gnu_cxx12_Lock_policyE2EEEEaSEDn,"x"
	.linkonce discard
	.align 2
	.globl	_ZNSt15__allocated_ptrISaISt23_Sp_counted_ptr_inplaceI5LevelSaIS1_ELN9__gnu_cxx12_Lock_policyE2EEEEaSEDn
	.def	_ZNSt15__allocated_ptrISaISt23_Sp_counted_ptr_inplaceI5LevelSaIS1_ELN9__gnu_cxx12_Lock_policyE2EEEEaSEDn;	.scl	2;	.type	32;	.endef
	.seh_proc	_ZNSt15__allocated_ptrISaISt23_Sp_counted_ptr_inplaceI5LevelSaIS1_ELN9__gnu_cxx12_Lock_policyE2EEEEaSEDn
_ZNSt15__allocated_ptrISaISt23_Sp_counted_ptr_inplaceI5LevelSaIS1_ELN9__gnu_cxx12_Lock_policyE2EEEEaSEDn:
.LFB5955:
	.loc 19 78 7
	.cfi_startproc
	pushq	%rbp
	.seh_pushreg	%rbp
	.cfi_def_cfa_offset 16
	.cfi_offset 6, -16
	movq	%rsp, %rbp
	.seh_setframe	%rbp, 0
	.cfi_def_cfa_register 6
	.seh_endprologue
	movq	%rcx, 16(%rbp)
	movq	%rdx, 24(%rbp)
	.loc 19 80 2
	movq	16(%rbp), %rax
	movq	$0, 8(%rax)
	.loc 19 81 10
	movq	16(%rbp), %rax
	.loc 19 82 7
	popq	%rbp
	.cfi_restore 6
	.cfi_def_cfa 7, 8
	ret
	.cfi_endproc
.LFE5955:
	.seh_endproc
	.section	.text$_ZN9__gnu_cxx13new_allocatorISt23_Sp_counted_ptr_inplaceI11StartScreenSaIS2_ELNS_12_Lock_policyE2EEEC2Ev,"x"
	.linkonce discard
	.align 2
	.globl	_ZN9__gnu_cxx13new_allocatorISt23_Sp_counted_ptr_inplaceI11StartScreenSaIS2_ELNS_12_Lock_policyE2EEEC2Ev
	.def	_ZN9__gnu_cxx13new_allocatorISt23_Sp_counted_ptr_inplaceI11StartScreenSaIS2_ELNS_12_Lock_policyE2EEEC2Ev;	.scl	2;	.type	32;	.endef
	.seh_proc	_ZN9__gnu_cxx13new_allocatorISt23_Sp_counted_ptr_inplaceI11StartScreenSaIS2_ELNS_12_Lock_policyE2EEEC2Ev
_ZN9__gnu_cxx13new_allocatorISt23_Sp_counted_ptr_inplaceI11StartScreenSaIS2_ELNS_12_Lock_policyE2EEEC2Ev:
.LFB5967:
	.loc 14 79 7
	.cfi_startproc
	pushq	%rbp
	.seh_pushreg	%rbp
	.cfi_def_cfa_offset 16
	.cfi_offset 6, -16
	movq	%rsp, %rbp
	.seh_setframe	%rbp, 0
	.cfi_def_cfa_register 6
	.seh_endprologue
	movq	%rcx, 16(%rbp)
	.loc 14 79 34
	nop
	popq	%rbp
	.cfi_restore 6
	.cfi_def_cfa 7, 8
	ret
	.cfi_endproc
.LFE5967:
	.seh_endproc
	.section	.text$_ZN9__gnu_cxx13new_allocatorISt23_Sp_counted_ptr_inplaceI11StartScreenSaIS2_ELNS_12_Lock_policyE2EEED2Ev,"x"
	.linkonce discard
	.align 2
	.globl	_ZN9__gnu_cxx13new_allocatorISt23_Sp_counted_ptr_inplaceI11StartScreenSaIS2_ELNS_12_Lock_policyE2EEED2Ev
	.def	_ZN9__gnu_cxx13new_allocatorISt23_Sp_counted_ptr_inplaceI11StartScreenSaIS2_ELNS_12_Lock_policyE2EEED2Ev;	.scl	2;	.type	32;	.endef
	.seh_proc	_ZN9__gnu_cxx13new_allocatorISt23_Sp_counted_ptr_inplaceI11StartScreenSaIS2_ELNS_12_Lock_policyE2EEED2Ev
_ZN9__gnu_cxx13new_allocatorISt23_Sp_counted_ptr_inplaceI11StartScreenSaIS2_ELNS_12_Lock_policyE2EEED2Ev:
.LFB5970:
	.loc 14 86 7
	.cfi_startproc
	pushq	%rbp
	.seh_pushreg	%rbp
	.cfi_def_cfa_offset 16
	.cfi_offset 6, -16
	movq	%rsp, %rbp
	.seh_setframe	%rbp, 0
	.cfi_def_cfa_register 6
	.seh_endprologue
	movq	%rcx, 16(%rbp)
	.loc 14 86 35
	nop
	popq	%rbp
	.cfi_restore 6
	.cfi_def_cfa 7, 8
	ret
	.cfi_endproc
.LFE5970:
	.seh_endproc
	.section	.text$_ZNSt16allocator_traitsISaISt23_Sp_counted_ptr_inplaceI11StartScreenSaIS1_ELN9__gnu_cxx12_Lock_policyE2EEEE8allocateERS6_y,"x"
	.linkonce discard
	.globl	_ZNSt16allocator_traitsISaISt23_Sp_counted_ptr_inplaceI11StartScreenSaIS1_ELN9__gnu_cxx12_Lock_policyE2EEEE8allocateERS6_y
	.def	_ZNSt16allocator_traitsISaISt23_Sp_counted_ptr_inplaceI11StartScreenSaIS1_ELN9__gnu_cxx12_Lock_policyE2EEEE8allocateERS6_y;	.scl	2;	.type	32;	.endef
	.seh_proc	_ZNSt16allocator_traitsISaISt23_Sp_counted_ptr_inplaceI11StartScreenSaIS1_ELN9__gnu_cxx12_Lock_policyE2EEEE8allocateERS6_y
_ZNSt16allocator_traitsISaISt23_Sp_counted_ptr_inplaceI11StartScreenSaIS1_ELN9__gnu_cxx12_Lock_policyE2EEEE8allocateERS6_y:
.LFB5972:
	.file 20 "C:/Program Files/CodeBlocks/MinGW/lib/gcc/x86_64-w64-mingw32/8.1.0/include/c++/bits/alloc_traits.h"
	.loc 20 435 7
	.cfi_startproc
	pushq	%rbp
	.seh_pushreg	%rbp
	.cfi_def_cfa_offset 16
	.cfi_offset 6, -16
	movq	%rsp, %rbp
	.seh_setframe	%rbp, 0
	.cfi_def_cfa_register 6
	subq	$32, %rsp
	.seh_stackalloc	32
	.seh_endprologue
	movq	%rcx, 16(%rbp)
	movq	%rdx, 24(%rbp)
	.loc 20 436 32
	movq	24(%rbp), %rax
	movl	$0, %r8d
	movq	%rax, %rdx
	movq	16(%rbp), %rcx
	call	_ZN9__gnu_cxx13new_allocatorISt23_Sp_counted_ptr_inplaceI11StartScreenSaIS2_ELNS_12_Lock_policyE2EEE8allocateEyPKv
	.loc 20 436 35
	addq	$32, %rsp
	popq	%rbp
	.cfi_restore 6
	.cfi_def_cfa 7, 8
	ret
	.cfi_endproc
.LFE5972:
	.seh_endproc
	.section	.text$_ZNSt15__allocated_ptrISaISt23_Sp_counted_ptr_inplaceI11StartScreenSaIS1_ELN9__gnu_cxx12_Lock_policyE2EEEEC1ERS6_PS5_,"x"
	.linkonce discard
	.align 2
	.globl	_ZNSt15__allocated_ptrISaISt23_Sp_counted_ptr_inplaceI11StartScreenSaIS1_ELN9__gnu_cxx12_Lock_policyE2EEEEC1ERS6_PS5_
	.def	_ZNSt15__allocated_ptrISaISt23_Sp_counted_ptr_inplaceI11StartScreenSaIS1_ELN9__gnu_cxx12_Lock_policyE2EEEEC1ERS6_PS5_;	.scl	2;	.type	32;	.endef
	.seh_proc	_ZNSt15__allocated_ptrISaISt23_Sp_counted_ptr_inplaceI11StartScreenSaIS1_ELN9__gnu_cxx12_Lock_policyE2EEEEC1ERS6_PS5_
_ZNSt15__allocated_ptrISaISt23_Sp_counted_ptr_inplaceI11StartScreenSaIS1_ELN9__gnu_cxx12_Lock_policyE2EEEEC1ERS6_PS5_:
.LFB5975:
	.loc 19 52 7
	.cfi_startproc
	pushq	%rbp
	.seh_pushreg	%rbp
	.cfi_def_cfa_offset 16
	.cfi_offset 6, -16
	movq	%rsp, %rbp
	.seh_setframe	%rbp, 0
	.cfi_def_cfa_register 6
	subq	$32, %rsp
	.seh_stackalloc	32
	.seh_endprologue
	movq	%rcx, 16(%rbp)
	movq	%rdx, 24(%rbp)
	movq	%r8, 32(%rbp)
.LBB62:
	.loc 19 53 34
	movq	24(%rbp), %rax
	movq	%rax, %rcx
	call	_ZSt11__addressofISaISt23_Sp_counted_ptr_inplaceI11StartScreenSaIS1_ELN9__gnu_cxx12_Lock_policyE2EEEEPT_RS7_
	movq	%rax, %rdx
	.loc 19 53 54
	movq	16(%rbp), %rax
	movq	%rdx, (%rax)
	movq	16(%rbp), %rax
	movq	32(%rbp), %rdx
	movq	%rdx, 8(%rax)
.LBE62:
	.loc 19 54 9
	nop
	addq	$32, %rsp
	popq	%rbp
	.cfi_restore 6
	.cfi_def_cfa 7, 8
	ret
	.cfi_endproc
.LFE5975:
	.seh_endproc
	.section	.text$_ZNSt16allocator_traitsISaISt23_Sp_counted_ptr_inplaceI11StartScreenSaIS1_ELN9__gnu_cxx12_Lock_policyE2EEEE10deallocateERS6_PS5_y,"x"
	.linkonce discard
	.globl	_ZNSt16allocator_traitsISaISt23_Sp_counted_ptr_inplaceI11StartScreenSaIS1_ELN9__gnu_cxx12_Lock_policyE2EEEE10deallocateERS6_PS5_y
	.def	_ZNSt16allocator_traitsISaISt23_Sp_counted_ptr_inplaceI11StartScreenSaIS1_ELN9__gnu_cxx12_Lock_policyE2EEEE10deallocateERS6_PS5_y;	.scl	2;	.type	32;	.endef
	.seh_proc	_ZNSt16allocator_traitsISaISt23_Sp_counted_ptr_inplaceI11StartScreenSaIS1_ELN9__gnu_cxx12_Lock_policyE2EEEE10deallocateERS6_PS5_y
_ZNSt16allocator_traitsISaISt23_Sp_counted_ptr_inplaceI11StartScreenSaIS1_ELN9__gnu_cxx12_Lock_policyE2EEEE10deallocateERS6_PS5_y:
.LFB5976:
	.loc 20 461 7
	.cfi_startproc
	pushq	%rbp
	.seh_pushreg	%rbp
	.cfi_def_cfa_offset 16
	.cfi_offset 6, -16
	movq	%rsp, %rbp
	.seh_setframe	%rbp, 0
	.cfi_def_cfa_register 6
	subq	$32, %rsp
	.seh_stackalloc	32
	.seh_endprologue
	movq	%rcx, 16(%rbp)
	movq	%rdx, 24(%rbp)
	movq	%r8, 32(%rbp)
	.loc 20 462 9
	movq	32(%rbp), %rdx
	movq	24(%rbp), %rax
	movq	%rdx, %r8
	movq	%rax, %rdx
	movq	16(%rbp), %rcx
	call	_ZN9__gnu_cxx13new_allocatorISt23_Sp_counted_ptr_inplaceI11StartScreenSaIS2_ELNS_12_Lock_policyE2EEE10deallocateEPS5_y
	.loc 20 462 35
	nop
	addq	$32, %rsp
	popq	%rbp
	.cfi_restore 6
	.cfi_def_cfa 7, 8
	ret
	.cfi_endproc
.LFE5976:
	.seh_endproc
	.section	.text$_ZSt12__to_addressISt23_Sp_counted_ptr_inplaceI11StartScreenSaIS1_ELN9__gnu_cxx12_Lock_policyE2EEEPT_S7_,"x"
	.linkonce discard
	.globl	_ZSt12__to_addressISt23_Sp_counted_ptr_inplaceI11StartScreenSaIS1_ELN9__gnu_cxx12_Lock_policyE2EEEPT_S7_
	.def	_ZSt12__to_addressISt23_Sp_counted_ptr_inplaceI11StartScreenSaIS1_ELN9__gnu_cxx12_Lock_policyE2EEEPT_S7_;	.scl	2;	.type	32;	.endef
	.seh_proc	_ZSt12__to_addressISt23_Sp_counted_ptr_inplaceI11StartScreenSaIS1_ELN9__gnu_cxx12_Lock_policyE2EEEPT_S7_
_ZSt12__to_addressISt23_Sp_counted_ptr_inplaceI11StartScreenSaIS1_ELN9__gnu_cxx12_Lock_policyE2EEEPT_S7_:
.LFB5977:
	.file 21 "C:/Program Files/CodeBlocks/MinGW/lib/gcc/x86_64-w64-mingw32/8.1.0/include/c++/bits/ptr_traits.h"
	.loc 21 151 5
	.cfi_startproc
	pushq	%rbp
	.seh_pushreg	%rbp
	.cfi_def_cfa_offset 16
	.cfi_offset 6, -16
	movq	%rsp, %rbp
	.seh_setframe	%rbp, 0
	.cfi_def_cfa_register 6
	.seh_endprologue
	movq	%rcx, 16(%rbp)
	.loc 21 154 14
	movq	16(%rbp), %rax
	.loc 21 155 5
	popq	%rbp
	.cfi_restore 6
	.cfi_def_cfa 7, 8
	ret
	.cfi_endproc
.LFE5977:
	.seh_endproc
	.section	.text$_ZN9__gnu_cxx13new_allocatorI11StartScreenEC2ERKS2_,"x"
	.linkonce discard
	.align 2
	.globl	_ZN9__gnu_cxx13new_allocatorI11StartScreenEC2ERKS2_
	.def	_ZN9__gnu_cxx13new_allocatorI11StartScreenEC2ERKS2_;	.scl	2;	.type	32;	.endef
	.seh_proc	_ZN9__gnu_cxx13new_allocatorI11StartScreenEC2ERKS2_
_ZN9__gnu_cxx13new_allocatorI11StartScreenEC2ERKS2_:
.LFB5979:
	.loc 14 81 7
	.cfi_startproc
	pushq	%rbp
	.seh_pushreg	%rbp
	.cfi_def_cfa_offset 16
	.cfi_offset 6, -16
	movq	%rsp, %rbp
	.seh_setframe	%rbp, 0
	.cfi_def_cfa_register 6
	.seh_endprologue
	movq	%rcx, 16(%rbp)
	movq	%rdx, 24(%rbp)
	.loc 14 81 54
	nop
	popq	%rbp
	.cfi_restore 6
	.cfi_def_cfa 7, 8
	ret
	.cfi_endproc
.LFE5979:
	.seh_endproc
	.section	.text$_ZNSt16_Sp_counted_baseILN9__gnu_cxx12_Lock_policyE2EEC2Ev,"x"
	.linkonce discard
	.align 2
	.globl	_ZNSt16_Sp_counted_baseILN9__gnu_cxx12_Lock_policyE2EEC2Ev
	.def	_ZNSt16_Sp_counted_baseILN9__gnu_cxx12_Lock_policyE2EEC2Ev;	.scl	2;	.type	32;	.endef
	.seh_proc	_ZNSt16_Sp_counted_baseILN9__gnu_cxx12_Lock_policyE2EEC2Ev
_ZNSt16_Sp_counted_baseILN9__gnu_cxx12_Lock_policyE2EEC2Ev:
.LFB5982:
	.loc 5 123 7
	.cfi_startproc
	pushq	%rbp
	.seh_pushreg	%rbp
	.cfi_def_cfa_offset 16
	.cfi_offset 6, -16
	movq	%rsp, %rbp
	.seh_setframe	%rbp, 0
	.cfi_def_cfa_register 6
	.seh_endprologue
	movq	%rcx, 16(%rbp)
.LBB63:
	.loc 5 124 41
	leaq	16+_ZTVSt16_Sp_counted_baseILN9__gnu_cxx12_Lock_policyE2EE(%rip), %rdx
	movq	16(%rbp), %rax
	movq	%rdx, (%rax)
	movq	16(%rbp), %rax
	movl	$1, 8(%rax)
	movq	16(%rbp), %rax
	movl	$1, 12(%rax)
.LBE63:
	.loc 5 124 45
	nop
	popq	%rbp
	.cfi_restore 6
	.cfi_def_cfa 7, 8
	ret
	.cfi_endproc
.LFE5982:
	.seh_endproc
	.section	.text$_ZNSt23_Sp_counted_ptr_inplaceI11StartScreenSaIS0_ELN9__gnu_cxx12_Lock_policyE2EE5_ImplC1ES1_,"x"
	.linkonce discard
	.align 2
	.globl	_ZNSt23_Sp_counted_ptr_inplaceI11StartScreenSaIS0_ELN9__gnu_cxx12_Lock_policyE2EE5_ImplC1ES1_
	.def	_ZNSt23_Sp_counted_ptr_inplaceI11StartScreenSaIS0_ELN9__gnu_cxx12_Lock_policyE2EE5_ImplC1ES1_;	.scl	2;	.type	32;	.endef
	.seh_proc	_ZNSt23_Sp_counted_ptr_inplaceI11StartScreenSaIS0_ELN9__gnu_cxx12_Lock_policyE2EE5_ImplC1ES1_
_ZNSt23_Sp_counted_ptr_inplaceI11StartScreenSaIS0_ELN9__gnu_cxx12_Lock_policyE2EE5_ImplC1ES1_:
.LFB5986:
	.loc 5 533 11
	.cfi_startproc
	pushq	%rbp
	.seh_pushreg	%rbp
	.cfi_def_cfa_offset 16
	.cfi_offset 6, -16
	movq	%rsp, %rbp
	.seh_setframe	%rbp, 0
	.cfi_def_cfa_register 6
	subq	$32, %rsp
	.seh_stackalloc	32
	.seh_endprologue
	movq	%rcx, 16(%rbp)
	movq	%rdx, 24(%rbp)
.LBB64:
	.loc 5 533 51
	movq	24(%rbp), %rax
	movq	%rax, %rdx
	movq	16(%rbp), %rcx
	call	_ZNSt14_Sp_ebo_helperILi0ESaI11StartScreenELb1EEC2ERKS1_
.LBE64:
	.loc 5 533 55
	nop
	addq	$32, %rsp
	popq	%rbp
	.cfi_restore 6
	.cfi_def_cfa 7, 8
	ret
	.cfi_endproc
.LFE5986:
	.seh_endproc
	.section	.text$_ZNSt23_Sp_counted_ptr_inplaceI11StartScreenSaIS0_ELN9__gnu_cxx12_Lock_policyE2EE6_M_ptrEv,"x"
	.linkonce discard
	.align 2
	.globl	_ZNSt23_Sp_counted_ptr_inplaceI11StartScreenSaIS0_ELN9__gnu_cxx12_Lock_policyE2EE6_M_ptrEv
	.def	_ZNSt23_Sp_counted_ptr_inplaceI11StartScreenSaIS0_ELN9__gnu_cxx12_Lock_policyE2EE6_M_ptrEv;	.scl	2;	.type	32;	.endef
	.seh_proc	_ZNSt23_Sp_counted_ptr_inplaceI11StartScreenSaIS0_ELN9__gnu_cxx12_Lock_policyE2EE6_M_ptrEv
_ZNSt23_Sp_counted_ptr_inplaceI11StartScreenSaIS0_ELN9__gnu_cxx12_Lock_policyE2EE6_M_ptrEv:
.LFB5987:
	.loc 5 584 12
	.cfi_startproc
	pushq	%rbp
	.seh_pushreg	%rbp
	.cfi_def_cfa_offset 16
	.cfi_offset 6, -16
	movq	%rsp, %rbp
	.seh_setframe	%rbp, 0
	.cfi_def_cfa_register 6
	subq	$32, %rsp
	.seh_stackalloc	32
	.seh_endprologue
	movq	%rcx, 16(%rbp)
	.loc 5 584 65
	movq	16(%rbp), %rax
	addq	$16, %rax
	movq	%rax, %rcx
	call	_ZN9__gnu_cxx16__aligned_bufferI11StartScreenE6_M_ptrEv
	.loc 5 584 68
	addq	$32, %rsp
	popq	%rbp
	.cfi_restore 6
	.cfi_def_cfa 7, 8
	ret
	.cfi_endproc
.LFE5987:
	.seh_endproc
	.section	.text$_ZNSt16allocator_traitsISaI11StartScreenEE9constructIS0_JRKSt6vectorINSt7__cxx1112basic_stringIcSt11char_traitsIcESaIcEEESaISA_EEEEEvRS1_PT_DpOT0_,"x"
	.linkonce discard
	.globl	_ZNSt16allocator_traitsISaI11StartScreenEE9constructIS0_JRKSt6vectorINSt7__cxx1112basic_stringIcSt11char_traitsIcESaIcEEESaISA_EEEEEvRS1_PT_DpOT0_
	.def	_ZNSt16allocator_traitsISaI11StartScreenEE9constructIS0_JRKSt6vectorINSt7__cxx1112basic_stringIcSt11char_traitsIcESaIcEEESaISA_EEEEEvRS1_PT_DpOT0_;	.scl	2;	.type	32;	.endef
	.seh_proc	_ZNSt16allocator_traitsISaI11StartScreenEE9constructIS0_JRKSt6vectorINSt7__cxx1112basic_stringIcSt11char_traitsIcESaIcEEESaISA_EEEEEvRS1_PT_DpOT0_
_ZNSt16allocator_traitsISaI11StartScreenEE9constructIS0_JRKSt6vectorINSt7__cxx1112basic_stringIcSt11char_traitsIcESaIcEEESaISA_EEEEEvRS1_PT_DpOT0_:
.LFB5988:
	.loc 20 474 2
	.cfi_startproc
	pushq	%rbp
	.seh_pushreg	%rbp
	.cfi_def_cfa_offset 16
	.cfi_offset 6, -16
	movq	%rsp, %rbp
	.seh_setframe	%rbp, 0
	.cfi_def_cfa_register 6
	subq	$32, %rsp
	.seh_stackalloc	32
	.seh_endprologue
	movq	%rcx, 16(%rbp)
	movq	%rdx, 24(%rbp)
	movq	%r8, 32(%rbp)
	.loc 20 475 4
	movq	32(%rbp), %rax
	movq	%rax, %rcx
	call	_ZSt7forwardIRKSt6vectorINSt7__cxx1112basic_stringIcSt11char_traitsIcESaIcEEESaIS6_EEEOT_RNSt16remove_referenceISB_E4typeE
	movq	%rax, %rdx
	movq	24(%rbp), %rax
	movq	%rdx, %r8
	movq	%rax, %rdx
	movq	16(%rbp), %rcx
	call	_ZN9__gnu_cxx13new_allocatorI11StartScreenE9constructIS1_JRKSt6vectorINSt7__cxx1112basic_stringIcSt11char_traitsIcESaIcEEESaISA_EEEEEvPT_DpOT0_
	.loc 20 475 56
	nop
	addq	$32, %rsp
	popq	%rbp
	.cfi_restore 6
	.cfi_def_cfa 7, 8
	ret
	.cfi_endproc
.LFE5988:
	.seh_endproc
	.section	.text$_ZN9__gnu_cxx13new_allocatorISt23_Sp_counted_ptr_inplaceI5LevelSaIS2_ELNS_12_Lock_policyE2EEEC2Ev,"x"
	.linkonce discard
	.align 2
	.globl	_ZN9__gnu_cxx13new_allocatorISt23_Sp_counted_ptr_inplaceI5LevelSaIS2_ELNS_12_Lock_policyE2EEEC2Ev
	.def	_ZN9__gnu_cxx13new_allocatorISt23_Sp_counted_ptr_inplaceI5LevelSaIS2_ELNS_12_Lock_policyE2EEEC2Ev;	.scl	2;	.type	32;	.endef
	.seh_proc	_ZN9__gnu_cxx13new_allocatorISt23_Sp_counted_ptr_inplaceI5LevelSaIS2_ELNS_12_Lock_policyE2EEEC2Ev
_ZN9__gnu_cxx13new_allocatorISt23_Sp_counted_ptr_inplaceI5LevelSaIS2_ELNS_12_Lock_policyE2EEEC2Ev:
.LFB5990:
	.loc 14 79 7
	.cfi_startproc
	pushq	%rbp
	.seh_pushreg	%rbp
	.cfi_def_cfa_offset 16
	.cfi_offset 6, -16
	movq	%rsp, %rbp
	.seh_setframe	%rbp, 0
	.cfi_def_cfa_register 6
	.seh_endprologue
	movq	%rcx, 16(%rbp)
	.loc 14 79 34
	nop
	popq	%rbp
	.cfi_restore 6
	.cfi_def_cfa 7, 8
	ret
	.cfi_endproc
.LFE5990:
	.seh_endproc
	.section	.text$_ZN9__gnu_cxx13new_allocatorISt23_Sp_counted_ptr_inplaceI5LevelSaIS2_ELNS_12_Lock_policyE2EEED2Ev,"x"
	.linkonce discard
	.align 2
	.globl	_ZN9__gnu_cxx13new_allocatorISt23_Sp_counted_ptr_inplaceI5LevelSaIS2_ELNS_12_Lock_policyE2EEED2Ev
	.def	_ZN9__gnu_cxx13new_allocatorISt23_Sp_counted_ptr_inplaceI5LevelSaIS2_ELNS_12_Lock_policyE2EEED2Ev;	.scl	2;	.type	32;	.endef
	.seh_proc	_ZN9__gnu_cxx13new_allocatorISt23_Sp_counted_ptr_inplaceI5LevelSaIS2_ELNS_12_Lock_policyE2EEED2Ev
_ZN9__gnu_cxx13new_allocatorISt23_Sp_counted_ptr_inplaceI5LevelSaIS2_ELNS_12_Lock_policyE2EEED2Ev:
.LFB5993:
	.loc 14 86 7
	.cfi_startproc
	pushq	%rbp
	.seh_pushreg	%rbp
	.cfi_def_cfa_offset 16
	.cfi_offset 6, -16
	movq	%rsp, %rbp
	.seh_setframe	%rbp, 0
	.cfi_def_cfa_register 6
	.seh_endprologue
	movq	%rcx, 16(%rbp)
	.loc 14 86 35
	nop
	popq	%rbp
	.cfi_restore 6
	.cfi_def_cfa 7, 8
	ret
	.cfi_endproc
.LFE5993:
	.seh_endproc
	.section	.text$_ZNSt16allocator_traitsISaISt23_Sp_counted_ptr_inplaceI5LevelSaIS1_ELN9__gnu_cxx12_Lock_policyE2EEEE8allocateERS6_y,"x"
	.linkonce discard
	.globl	_ZNSt16allocator_traitsISaISt23_Sp_counted_ptr_inplaceI5LevelSaIS1_ELN9__gnu_cxx12_Lock_policyE2EEEE8allocateERS6_y
	.def	_ZNSt16allocator_traitsISaISt23_Sp_counted_ptr_inplaceI5LevelSaIS1_ELN9__gnu_cxx12_Lock_policyE2EEEE8allocateERS6_y;	.scl	2;	.type	32;	.endef
	.seh_proc	_ZNSt16allocator_traitsISaISt23_Sp_counted_ptr_inplaceI5LevelSaIS1_ELN9__gnu_cxx12_Lock_policyE2EEEE8allocateERS6_y
_ZNSt16allocator_traitsISaISt23_Sp_counted_ptr_inplaceI5LevelSaIS1_ELN9__gnu_cxx12_Lock_policyE2EEEE8allocateERS6_y:
.LFB5995:
	.loc 20 435 7
	.cfi_startproc
	pushq	%rbp
	.seh_pushreg	%rbp
	.cfi_def_cfa_offset 16
	.cfi_offset 6, -16
	movq	%rsp, %rbp
	.seh_setframe	%rbp, 0
	.cfi_def_cfa_register 6
	subq	$32, %rsp
	.seh_stackalloc	32
	.seh_endprologue
	movq	%rcx, 16(%rbp)
	movq	%rdx, 24(%rbp)
	.loc 20 436 32
	movq	24(%rbp), %rax
	movl	$0, %r8d
	movq	%rax, %rdx
	movq	16(%rbp), %rcx
	call	_ZN9__gnu_cxx13new_allocatorISt23_Sp_counted_ptr_inplaceI5LevelSaIS2_ELNS_12_Lock_policyE2EEE8allocateEyPKv
	.loc 20 436 35
	addq	$32, %rsp
	popq	%rbp
	.cfi_restore 6
	.cfi_def_cfa 7, 8
	ret
	.cfi_endproc
.LFE5995:
	.seh_endproc
	.section	.text$_ZNSt15__allocated_ptrISaISt23_Sp_counted_ptr_inplaceI5LevelSaIS1_ELN9__gnu_cxx12_Lock_policyE2EEEEC1ERS6_PS5_,"x"
	.linkonce discard
	.align 2
	.globl	_ZNSt15__allocated_ptrISaISt23_Sp_counted_ptr_inplaceI5LevelSaIS1_ELN9__gnu_cxx12_Lock_policyE2EEEEC1ERS6_PS5_
	.def	_ZNSt15__allocated_ptrISaISt23_Sp_counted_ptr_inplaceI5LevelSaIS1_ELN9__gnu_cxx12_Lock_policyE2EEEEC1ERS6_PS5_;	.scl	2;	.type	32;	.endef
	.seh_proc	_ZNSt15__allocated_ptrISaISt23_Sp_counted_ptr_inplaceI5LevelSaIS1_ELN9__gnu_cxx12_Lock_policyE2EEEEC1ERS6_PS5_
_ZNSt15__allocated_ptrISaISt23_Sp_counted_ptr_inplaceI5LevelSaIS1_ELN9__gnu_cxx12_Lock_policyE2EEEEC1ERS6_PS5_:
.LFB5998:
	.loc 19 52 7
	.cfi_startproc
	pushq	%rbp
	.seh_pushreg	%rbp
	.cfi_def_cfa_offset 16
	.cfi_offset 6, -16
	movq	%rsp, %rbp
	.seh_setframe	%rbp, 0
	.cfi_def_cfa_register 6
	subq	$32, %rsp
	.seh_stackalloc	32
	.seh_endprologue
	movq	%rcx, 16(%rbp)
	movq	%rdx, 24(%rbp)
	movq	%r8, 32(%rbp)
.LBB65:
	.loc 19 53 34
	movq	24(%rbp), %rax
	movq	%rax, %rcx
	call	_ZSt11__addressofISaISt23_Sp_counted_ptr_inplaceI5LevelSaIS1_ELN9__gnu_cxx12_Lock_policyE2EEEEPT_RS7_
	movq	%rax, %rdx
	.loc 19 53 54
	movq	16(%rbp), %rax
	movq	%rdx, (%rax)
	movq	16(%rbp), %rax
	movq	32(%rbp), %rdx
	movq	%rdx, 8(%rax)
.LBE65:
	.loc 19 54 9
	nop
	addq	$32, %rsp
	popq	%rbp
	.cfi_restore 6
	.cfi_def_cfa 7, 8
	ret
	.cfi_endproc
.LFE5998:
	.seh_endproc
	.section	.text$_ZNSt16allocator_traitsISaISt23_Sp_counted_ptr_inplaceI5LevelSaIS1_ELN9__gnu_cxx12_Lock_policyE2EEEE10deallocateERS6_PS5_y,"x"
	.linkonce discard
	.globl	_ZNSt16allocator_traitsISaISt23_Sp_counted_ptr_inplaceI5LevelSaIS1_ELN9__gnu_cxx12_Lock_policyE2EEEE10deallocateERS6_PS5_y
	.def	_ZNSt16allocator_traitsISaISt23_Sp_counted_ptr_inplaceI5LevelSaIS1_ELN9__gnu_cxx12_Lock_policyE2EEEE10deallocateERS6_PS5_y;	.scl	2;	.type	32;	.endef
	.seh_proc	_ZNSt16allocator_traitsISaISt23_Sp_counted_ptr_inplaceI5LevelSaIS1_ELN9__gnu_cxx12_Lock_policyE2EEEE10deallocateERS6_PS5_y
_ZNSt16allocator_traitsISaISt23_Sp_counted_ptr_inplaceI5LevelSaIS1_ELN9__gnu_cxx12_Lock_policyE2EEEE10deallocateERS6_PS5_y:
.LFB5999:
	.loc 20 461 7
	.cfi_startproc
	pushq	%rbp
	.seh_pushreg	%rbp
	.cfi_def_cfa_offset 16
	.cfi_offset 6, -16
	movq	%rsp, %rbp
	.seh_setframe	%rbp, 0
	.cfi_def_cfa_register 6
	subq	$32, %rsp
	.seh_stackalloc	32
	.seh_endprologue
	movq	%rcx, 16(%rbp)
	movq	%rdx, 24(%rbp)
	movq	%r8, 32(%rbp)
	.loc 20 462 9
	movq	32(%rbp), %rdx
	movq	24(%rbp), %rax
	movq	%rdx, %r8
	movq	%rax, %rdx
	movq	16(%rbp), %rcx
	call	_ZN9__gnu_cxx13new_allocatorISt23_Sp_counted_ptr_inplaceI5LevelSaIS2_ELNS_12_Lock_policyE2EEE10deallocateEPS5_y
	.loc 20 462 35
	nop
	addq	$32, %rsp
	popq	%rbp
	.cfi_restore 6
	.cfi_def_cfa 7, 8
	ret
	.cfi_endproc
.LFE5999:
	.seh_endproc
	.section	.text$_ZSt12__to_addressISt23_Sp_counted_ptr_inplaceI5LevelSaIS1_ELN9__gnu_cxx12_Lock_policyE2EEEPT_S7_,"x"
	.linkonce discard
	.globl	_ZSt12__to_addressISt23_Sp_counted_ptr_inplaceI5LevelSaIS1_ELN9__gnu_cxx12_Lock_policyE2EEEPT_S7_
	.def	_ZSt12__to_addressISt23_Sp_counted_ptr_inplaceI5LevelSaIS1_ELN9__gnu_cxx12_Lock_policyE2EEEPT_S7_;	.scl	2;	.type	32;	.endef
	.seh_proc	_ZSt12__to_addressISt23_Sp_counted_ptr_inplaceI5LevelSaIS1_ELN9__gnu_cxx12_Lock_policyE2EEEPT_S7_
_ZSt12__to_addressISt23_Sp_counted_ptr_inplaceI5LevelSaIS1_ELN9__gnu_cxx12_Lock_policyE2EEEPT_S7_:
.LFB6000:
	.loc 21 151 5
	.cfi_startproc
	pushq	%rbp
	.seh_pushreg	%rbp
	.cfi_def_cfa_offset 16
	.cfi_offset 6, -16
	movq	%rsp, %rbp
	.seh_setframe	%rbp, 0
	.cfi_def_cfa_register 6
	.seh_endprologue
	movq	%rcx, 16(%rbp)
	.loc 21 154 14
	movq	16(%rbp), %rax
	.loc 21 155 5
	popq	%rbp
	.cfi_restore 6
	.cfi_def_cfa 7, 8
	ret
	.cfi_endproc
.LFE6000:
	.seh_endproc
	.section	.text$_ZN9__gnu_cxx13new_allocatorI5LevelEC2ERKS2_,"x"
	.linkonce discard
	.align 2
	.globl	_ZN9__gnu_cxx13new_allocatorI5LevelEC2ERKS2_
	.def	_ZN9__gnu_cxx13new_allocatorI5LevelEC2ERKS2_;	.scl	2;	.type	32;	.endef
	.seh_proc	_ZN9__gnu_cxx13new_allocatorI5LevelEC2ERKS2_
_ZN9__gnu_cxx13new_allocatorI5LevelEC2ERKS2_:
.LFB6002:
	.loc 14 81 7
	.cfi_startproc
	pushq	%rbp
	.seh_pushreg	%rbp
	.cfi_def_cfa_offset 16
	.cfi_offset 6, -16
	movq	%rsp, %rbp
	.seh_setframe	%rbp, 0
	.cfi_def_cfa_register 6
	.seh_endprologue
	movq	%rcx, 16(%rbp)
	movq	%rdx, 24(%rbp)
	.loc 14 81 54
	nop
	popq	%rbp
	.cfi_restore 6
	.cfi_def_cfa 7, 8
	ret
	.cfi_endproc
.LFE6002:
	.seh_endproc
	.section	.text$_ZNSt23_Sp_counted_ptr_inplaceI5LevelSaIS0_ELN9__gnu_cxx12_Lock_policyE2EE5_ImplC1ES1_,"x"
	.linkonce discard
	.align 2
	.globl	_ZNSt23_Sp_counted_ptr_inplaceI5LevelSaIS0_ELN9__gnu_cxx12_Lock_policyE2EE5_ImplC1ES1_
	.def	_ZNSt23_Sp_counted_ptr_inplaceI5LevelSaIS0_ELN9__gnu_cxx12_Lock_policyE2EE5_ImplC1ES1_;	.scl	2;	.type	32;	.endef
	.seh_proc	_ZNSt23_Sp_counted_ptr_inplaceI5LevelSaIS0_ELN9__gnu_cxx12_Lock_policyE2EE5_ImplC1ES1_
_ZNSt23_Sp_counted_ptr_inplaceI5LevelSaIS0_ELN9__gnu_cxx12_Lock_policyE2EE5_ImplC1ES1_:
.LFB6006:
	.loc 5 533 11
	.cfi_startproc
	pushq	%rbp
	.seh_pushreg	%rbp
	.cfi_def_cfa_offset 16
	.cfi_offset 6, -16
	movq	%rsp, %rbp
	.seh_setframe	%rbp, 0
	.cfi_def_cfa_register 6
	subq	$32, %rsp
	.seh_stackalloc	32
	.seh_endprologue
	movq	%rcx, 16(%rbp)
	movq	%rdx, 24(%rbp)
.LBB66:
	.loc 5 533 51
	movq	24(%rbp), %rax
	movq	%rax, %rdx
	movq	16(%rbp), %rcx
	call	_ZNSt14_Sp_ebo_helperILi0ESaI5LevelELb1EEC2ERKS1_
.LBE66:
	.loc 5 533 55
	nop
	addq	$32, %rsp
	popq	%rbp
	.cfi_restore 6
	.cfi_def_cfa 7, 8
	ret
	.cfi_endproc
.LFE6006:
	.seh_endproc
	.section	.text$_ZNSt23_Sp_counted_ptr_inplaceI5LevelSaIS0_ELN9__gnu_cxx12_Lock_policyE2EE6_M_ptrEv,"x"
	.linkonce discard
	.align 2
	.globl	_ZNSt23_Sp_counted_ptr_inplaceI5LevelSaIS0_ELN9__gnu_cxx12_Lock_policyE2EE6_M_ptrEv
	.def	_ZNSt23_Sp_counted_ptr_inplaceI5LevelSaIS0_ELN9__gnu_cxx12_Lock_policyE2EE6_M_ptrEv;	.scl	2;	.type	32;	.endef
	.seh_proc	_ZNSt23_Sp_counted_ptr_inplaceI5LevelSaIS0_ELN9__gnu_cxx12_Lock_policyE2EE6_M_ptrEv
_ZNSt23_Sp_counted_ptr_inplaceI5LevelSaIS0_ELN9__gnu_cxx12_Lock_policyE2EE6_M_ptrEv:
.LFB6007:
	.loc 5 584 12
	.cfi_startproc
	pushq	%rbp
	.seh_pushreg	%rbp
	.cfi_def_cfa_offset 16
	.cfi_offset 6, -16
	movq	%rsp, %rbp
	.seh_setframe	%rbp, 0
	.cfi_def_cfa_register 6
	subq	$32, %rsp
	.seh_stackalloc	32
	.seh_endprologue
	movq	%rcx, 16(%rbp)
	.loc 5 584 65
	movq	16(%rbp), %rax
	addq	$16, %rax
	movq	%rax, %rcx
	call	_ZN9__gnu_cxx16__aligned_bufferI5LevelE6_M_ptrEv
	.loc 5 584 68
	addq	$32, %rsp
	popq	%rbp
	.cfi_restore 6
	.cfi_def_cfa 7, 8
	ret
	.cfi_endproc
.LFE6007:
	.seh_endproc
	.section	.text$_ZNSt16allocator_traitsISaI5LevelEE9constructIS0_JRKSt6vectorINSt7__cxx1112basic_stringIcSt11char_traitsIcESaIcEEESaISA_EEEEEvRS1_PT_DpOT0_,"x"
	.linkonce discard
	.globl	_ZNSt16allocator_traitsISaI5LevelEE9constructIS0_JRKSt6vectorINSt7__cxx1112basic_stringIcSt11char_traitsIcESaIcEEESaISA_EEEEEvRS1_PT_DpOT0_
	.def	_ZNSt16allocator_traitsISaI5LevelEE9constructIS0_JRKSt6vectorINSt7__cxx1112basic_stringIcSt11char_traitsIcESaIcEEESaISA_EEEEEvRS1_PT_DpOT0_;	.scl	2;	.type	32;	.endef
	.seh_proc	_ZNSt16allocator_traitsISaI5LevelEE9constructIS0_JRKSt6vectorINSt7__cxx1112basic_stringIcSt11char_traitsIcESaIcEEESaISA_EEEEEvRS1_PT_DpOT0_
_ZNSt16allocator_traitsISaI5LevelEE9constructIS0_JRKSt6vectorINSt7__cxx1112basic_stringIcSt11char_traitsIcESaIcEEESaISA_EEEEEvRS1_PT_DpOT0_:
.LFB6008:
	.loc 20 474 2
	.cfi_startproc
	pushq	%rbp
	.seh_pushreg	%rbp
	.cfi_def_cfa_offset 16
	.cfi_offset 6, -16
	movq	%rsp, %rbp
	.seh_setframe	%rbp, 0
	.cfi_def_cfa_register 6
	subq	$32, %rsp
	.seh_stackalloc	32
	.seh_endprologue
	movq	%rcx, 16(%rbp)
	movq	%rdx, 24(%rbp)
	movq	%r8, 32(%rbp)
	.loc 20 475 4
	movq	32(%rbp), %rax
	movq	%rax, %rcx
	call	_ZSt7forwardIRKSt6vectorINSt7__cxx1112basic_stringIcSt11char_traitsIcESaIcEEESaIS6_EEEOT_RNSt16remove_referenceISB_E4typeE
	movq	%rax, %rdx
	movq	24(%rbp), %rax
	movq	%rdx, %r8
	movq	%rax, %rdx
	movq	16(%rbp), %rcx
	call	_ZN9__gnu_cxx13new_allocatorI5LevelE9constructIS1_JRKSt6vectorINSt7__cxx1112basic_stringIcSt11char_traitsIcESaIcEEESaISA_EEEEEvPT_DpOT0_
	.loc 20 475 56
	nop
	addq	$32, %rsp
	popq	%rbp
	.cfi_restore 6
	.cfi_def_cfa 7, 8
	ret
	.cfi_endproc
.LFE6008:
	.seh_endproc
	.section	.text$_ZN9__gnu_cxx13new_allocatorISt23_Sp_counted_ptr_inplaceI11StartScreenSaIS2_ELNS_12_Lock_policyE2EEE8allocateEyPKv,"x"
	.linkonce discard
	.align 2
	.globl	_ZN9__gnu_cxx13new_allocatorISt23_Sp_counted_ptr_inplaceI11StartScreenSaIS2_ELNS_12_Lock_policyE2EEE8allocateEyPKv
	.def	_ZN9__gnu_cxx13new_allocatorISt23_Sp_counted_ptr_inplaceI11StartScreenSaIS2_ELNS_12_Lock_policyE2EEE8allocateEyPKv;	.scl	2;	.type	32;	.endef
	.seh_proc	_ZN9__gnu_cxx13new_allocatorISt23_Sp_counted_ptr_inplaceI11StartScreenSaIS2_ELNS_12_Lock_policyE2EEE8allocateEyPKv
_ZN9__gnu_cxx13new_allocatorISt23_Sp_counted_ptr_inplaceI11StartScreenSaIS2_ELNS_12_Lock_policyE2EEE8allocateEyPKv:
.LFB6011:
	.loc 14 99 7
	.cfi_startproc
	pushq	%rbp
	.seh_pushreg	%rbp
	.cfi_def_cfa_offset 16
	.cfi_offset 6, -16
	movq	%rsp, %rbp
	.seh_setframe	%rbp, 0
	.cfi_def_cfa_register 6
	subq	$32, %rsp
	.seh_stackalloc	32
	.seh_endprologue
	movq	%rcx, 16(%rbp)
	movq	%rdx, 24(%rbp)
	movq	%r8, 32(%rbp)
	.loc 14 101 10
	movq	16(%rbp), %rcx
	call	_ZNK9__gnu_cxx13new_allocatorISt23_Sp_counted_ptr_inplaceI11StartScreenSaIS2_ELNS_12_Lock_policyE2EEE8max_sizeEv
	cmpq	%rax, 24(%rbp)
	seta	%al
	.loc 14 101 2
	testb	%al, %al
	je	.L297
	.loc 14 102 26
	call	_ZSt17__throw_bad_allocv
.L297:
	.loc 14 111 41
	movq	24(%rbp), %rdx
	movq	%rdx, %rax
	addq	%rax, %rax
	addq	%rdx, %rax
	salq	$4, %rax
	movq	%rax, %rcx
	call	_Znwy
	.loc 14 112 7
	addq	$32, %rsp
	popq	%rbp
	.cfi_restore 6
	.cfi_def_cfa 7, 8
	ret
	.cfi_endproc
.LFE6011:
	.seh_endproc
	.section	.text$_ZSt11__addressofISaISt23_Sp_counted_ptr_inplaceI11StartScreenSaIS1_ELN9__gnu_cxx12_Lock_policyE2EEEEPT_RS7_,"x"
	.linkonce discard
	.globl	_ZSt11__addressofISaISt23_Sp_counted_ptr_inplaceI11StartScreenSaIS1_ELN9__gnu_cxx12_Lock_policyE2EEEEPT_RS7_
	.def	_ZSt11__addressofISaISt23_Sp_counted_ptr_inplaceI11StartScreenSaIS1_ELN9__gnu_cxx12_Lock_policyE2EEEEPT_RS7_;	.scl	2;	.type	32;	.endef
	.seh_proc	_ZSt11__addressofISaISt23_Sp_counted_ptr_inplaceI11StartScreenSaIS1_ELN9__gnu_cxx12_Lock_policyE2EEEEPT_RS7_
_ZSt11__addressofISaISt23_Sp_counted_ptr_inplaceI11StartScreenSaIS1_ELN9__gnu_cxx12_Lock_policyE2EEEEPT_RS7_:
.LFB6012:
	.loc 13 47 5
	.cfi_startproc
	pushq	%rbp
	.seh_pushreg	%rbp
	.cfi_def_cfa_offset 16
	.cfi_offset 6, -16
	movq	%rsp, %rbp
	.seh_setframe	%rbp, 0
	.cfi_def_cfa_register 6
	.seh_endprologue
	movq	%rcx, 16(%rbp)
	.loc 13 48 37
	movq	16(%rbp), %rax
	.loc 13 48 40
	popq	%rbp
	.cfi_restore 6
	.cfi_def_cfa 7, 8
	ret
	.cfi_endproc
.LFE6012:
	.seh_endproc
	.section	.text$_ZN9__gnu_cxx13new_allocatorISt23_Sp_counted_ptr_inplaceI11StartScreenSaIS2_ELNS_12_Lock_policyE2EEE10deallocateEPS5_y,"x"
	.linkonce discard
	.align 2
	.globl	_ZN9__gnu_cxx13new_allocatorISt23_Sp_counted_ptr_inplaceI11StartScreenSaIS2_ELNS_12_Lock_policyE2EEE10deallocateEPS5_y
	.def	_ZN9__gnu_cxx13new_allocatorISt23_Sp_counted_ptr_inplaceI11StartScreenSaIS2_ELNS_12_Lock_policyE2EEE10deallocateEPS5_y;	.scl	2;	.type	32;	.endef
	.seh_proc	_ZN9__gnu_cxx13new_allocatorISt23_Sp_counted_ptr_inplaceI11StartScreenSaIS2_ELNS_12_Lock_policyE2EEE10deallocateEPS5_y
_ZN9__gnu_cxx13new_allocatorISt23_Sp_counted_ptr_inplaceI11StartScreenSaIS2_ELNS_12_Lock_policyE2EEE10deallocateEPS5_y:
.LFB6013:
	.loc 14 116 7
	.cfi_startproc
	pushq	%rbp
	.seh_pushreg	%rbp
	.cfi_def_cfa_offset 16
	.cfi_offset 6, -16
	movq	%rsp, %rbp
	.seh_setframe	%rbp, 0
	.cfi_def_cfa_register 6
	subq	$32, %rsp
	.seh_stackalloc	32
	.seh_endprologue
	movq	%rcx, 16(%rbp)
	movq	%rdx, 24(%rbp)
	movq	%r8, 32(%rbp)
	.loc 14 125 19
	movq	24(%rbp), %rax
	movq	%rax, %rcx
	call	_ZdlPv
	.loc 14 126 7
	nop
	addq	$32, %rsp
	popq	%rbp
	.cfi_restore 6
	.cfi_def_cfa 7, 8
	ret
	.cfi_endproc
.LFE6013:
	.seh_endproc
	.section	.text$_ZNSt14_Sp_ebo_helperILi0ESaI11StartScreenELb1EEC2ERKS1_,"x"
	.linkonce discard
	.align 2
	.globl	_ZNSt14_Sp_ebo_helperILi0ESaI11StartScreenELb1EEC2ERKS1_
	.def	_ZNSt14_Sp_ebo_helperILi0ESaI11StartScreenELb1EEC2ERKS1_;	.scl	2;	.type	32;	.endef
	.seh_proc	_ZNSt14_Sp_ebo_helperILi0ESaI11StartScreenELb1EEC2ERKS1_
_ZNSt14_Sp_ebo_helperILi0ESaI11StartScreenELb1EEC2ERKS1_:
.LFB6015:
	.loc 5 420 16
	.cfi_startproc
	pushq	%rbp
	.seh_pushreg	%rbp
	.cfi_def_cfa_offset 16
	.cfi_offset 6, -16
	movq	%rsp, %rbp
	.seh_setframe	%rbp, 0
	.cfi_def_cfa_register 6
	subq	$32, %rsp
	.seh_stackalloc	32
	.seh_endprologue
	movq	%rcx, 16(%rbp)
	movq	%rdx, 24(%rbp)
.LBB67:
	.loc 5 420 58
	movq	24(%rbp), %rax
	movq	%rax, %rdx
	movq	16(%rbp), %rcx
	call	_ZNSaI11StartScreenEC2ERKS0_
.LBE67:
	.loc 5 420 62
	nop
	addq	$32, %rsp
	popq	%rbp
	.cfi_restore 6
	.cfi_def_cfa 7, 8
	ret
	.cfi_endproc
.LFE6015:
	.seh_endproc
	.section	.text$_ZN9__gnu_cxx16__aligned_bufferI11StartScreenE6_M_ptrEv,"x"
	.linkonce discard
	.align 2
	.globl	_ZN9__gnu_cxx16__aligned_bufferI11StartScreenE6_M_ptrEv
	.def	_ZN9__gnu_cxx16__aligned_bufferI11StartScreenE6_M_ptrEv;	.scl	2;	.type	32;	.endef
	.seh_proc	_ZN9__gnu_cxx16__aligned_bufferI11StartScreenE6_M_ptrEv
_ZN9__gnu_cxx16__aligned_bufferI11StartScreenE6_M_ptrEv:
.LFB6017:
	.file 22 "C:/Program Files/CodeBlocks/MinGW/lib/gcc/x86_64-w64-mingw32/8.1.0/include/c++/ext/aligned_buffer.h"
	.loc 22 113 7
	.cfi_startproc
	pushq	%rbp
	.seh_pushreg	%rbp
	.cfi_def_cfa_offset 16
	.cfi_offset 6, -16
	movq	%rsp, %rbp
	.seh_setframe	%rbp, 0
	.cfi_def_cfa_register 6
	subq	$32, %rsp
	.seh_stackalloc	32
	.seh_endprologue
	movq	%rcx, 16(%rbp)
	.loc 22 114 16
	movq	16(%rbp), %rcx
	call	_ZN9__gnu_cxx16__aligned_bufferI11StartScreenE7_M_addrEv
	.loc 22 114 46
	addq	$32, %rsp
	popq	%rbp
	.cfi_restore 6
	.cfi_def_cfa 7, 8
	ret
	.cfi_endproc
.LFE6017:
	.seh_endproc
	.section	.text$_ZN9__gnu_cxx13new_allocatorI11StartScreenE9constructIS1_JRKSt6vectorINSt7__cxx1112basic_stringIcSt11char_traitsIcESaIcEEESaISA_EEEEEvPT_DpOT0_,"x"
	.linkonce discard
	.align 2
	.globl	_ZN9__gnu_cxx13new_allocatorI11StartScreenE9constructIS1_JRKSt6vectorINSt7__cxx1112basic_stringIcSt11char_traitsIcESaIcEEESaISA_EEEEEvPT_DpOT0_
	.def	_ZN9__gnu_cxx13new_allocatorI11StartScreenE9constructIS1_JRKSt6vectorINSt7__cxx1112basic_stringIcSt11char_traitsIcESaIcEEESaISA_EEEEEvPT_DpOT0_;	.scl	2;	.type	32;	.endef
	.seh_proc	_ZN9__gnu_cxx13new_allocatorI11StartScreenE9constructIS1_JRKSt6vectorINSt7__cxx1112basic_stringIcSt11char_traitsIcESaIcEEESaISA_EEEEEvPT_DpOT0_
_ZN9__gnu_cxx13new_allocatorI11StartScreenE9constructIS1_JRKSt6vectorINSt7__cxx1112basic_stringIcSt11char_traitsIcESaIcEEESaISA_EEEEEvPT_DpOT0_:
.LFB6018:
	.loc 14 135 2
	.cfi_startproc
	pushq	%rbp
	.seh_pushreg	%rbp
	.cfi_def_cfa_offset 16
	.cfi_offset 6, -16
	pushq	%rdi
	.seh_pushreg	%rdi
	.cfi_def_cfa_offset 24
	.cfi_offset 5, -24
	pushq	%rsi
	.seh_pushreg	%rsi
	.cfi_def_cfa_offset 32
	.cfi_offset 4, -32
	pushq	%rbx
	.seh_pushreg	%rbx
	.cfi_def_cfa_offset 40
	.cfi_offset 3, -40
	subq	$40, %rsp
	.seh_stackalloc	40
	.cfi_def_cfa_offset 80
	leaq	128(%rsp), %rbp
	.seh_setframe	%rbp, 128
	.cfi_def_cfa 6, -48
	.seh_endprologue
	movq	%rcx, -48(%rbp)
	movq	%rdx, -40(%rbp)
	movq	%r8, -32(%rbp)
	.loc 14 136 46
	movq	-32(%rbp), %rax
	movq	%rax, %rcx
	call	_ZSt7forwardIRKSt6vectorINSt7__cxx1112basic_stringIcSt11char_traitsIcESaIcEEESaIS6_EEEOT_RNSt16remove_referenceISB_E4typeE
	movq	%rax, %rdi
	.loc 14 136 4
	movq	-40(%rbp), %rbx
	movq	%rbx, %rdx
	movl	$32, %ecx
	call	_ZnwyPv
	movq	%rax, %rsi
	movq	%rdi, %rdx
	movq	%rsi, %rcx
.LEHB29:
	call	_ZN11StartScreenC1ERKSt6vectorINSt7__cxx1112basic_stringIcSt11char_traitsIcESaIcEEESaIS6_EE
.LEHE29:
	.loc 14 136 60
	jmp	.L308
.L307:
	movq	%rax, %rdi
	.loc 14 136 4
	movq	%rbx, %rdx
	movq	%rsi, %rcx
	call	_ZdlPvS_
	movq	%rdi, %rax
	movq	%rax, %rcx
.LEHB30:
	call	_Unwind_Resume
	nop
.LEHE30:
.L308:
	.loc 14 136 60
	addq	$40, %rsp
	popq	%rbx
	.cfi_restore 3
	popq	%rsi
	.cfi_restore 4
	popq	%rdi
	.cfi_restore 5
	popq	%rbp
	.cfi_restore 6
	.cfi_def_cfa 7, -8
	ret
	.cfi_endproc
.LFE6018:
	.seh_handler	__gxx_personality_seh0, @unwind, @except
	.seh_handlerdata
.LLSDA6018:
	.byte	0xff
	.byte	0xff
	.byte	0x1
	.uleb128 .LLSDACSE6018-.LLSDACSB6018
.LLSDACSB6018:
	.uleb128 .LEHB29-.LFB6018
	.uleb128 .LEHE29-.LEHB29
	.uleb128 .L307-.LFB6018
	.uleb128 0
	.uleb128 .LEHB30-.LFB6018
	.uleb128 .LEHE30-.LEHB30
	.uleb128 0
	.uleb128 0
.LLSDACSE6018:
	.section	.text$_ZN9__gnu_cxx13new_allocatorI11StartScreenE9constructIS1_JRKSt6vectorINSt7__cxx1112basic_stringIcSt11char_traitsIcESaIcEEESaISA_EEEEEvPT_DpOT0_,"x"
	.linkonce discard
	.seh_endproc
	.section	.text$_ZN9__gnu_cxx13new_allocatorISt23_Sp_counted_ptr_inplaceI5LevelSaIS2_ELNS_12_Lock_policyE2EEE8allocateEyPKv,"x"
	.linkonce discard
	.align 2
	.globl	_ZN9__gnu_cxx13new_allocatorISt23_Sp_counted_ptr_inplaceI5LevelSaIS2_ELNS_12_Lock_policyE2EEE8allocateEyPKv
	.def	_ZN9__gnu_cxx13new_allocatorISt23_Sp_counted_ptr_inplaceI5LevelSaIS2_ELNS_12_Lock_policyE2EEE8allocateEyPKv;	.scl	2;	.type	32;	.endef
	.seh_proc	_ZN9__gnu_cxx13new_allocatorISt23_Sp_counted_ptr_inplaceI5LevelSaIS2_ELNS_12_Lock_policyE2EEE8allocateEyPKv
_ZN9__gnu_cxx13new_allocatorISt23_Sp_counted_ptr_inplaceI5LevelSaIS2_ELNS_12_Lock_policyE2EEE8allocateEyPKv:
.LFB6019:
	.loc 14 99 7
	.cfi_startproc
	pushq	%rbp
	.seh_pushreg	%rbp
	.cfi_def_cfa_offset 16
	.cfi_offset 6, -16
	movq	%rsp, %rbp
	.seh_setframe	%rbp, 0
	.cfi_def_cfa_register 6
	subq	$32, %rsp
	.seh_stackalloc	32
	.seh_endprologue
	movq	%rcx, 16(%rbp)
	movq	%rdx, 24(%rbp)
	movq	%r8, 32(%rbp)
	.loc 14 101 10
	movq	16(%rbp), %rcx
	call	_ZNK9__gnu_cxx13new_allocatorISt23_Sp_counted_ptr_inplaceI5LevelSaIS2_ELNS_12_Lock_policyE2EEE8max_sizeEv
	cmpq	%rax, 24(%rbp)
	seta	%al
	.loc 14 101 2
	testb	%al, %al
	je	.L310
	.loc 14 102 26
	call	_ZSt17__throw_bad_allocv
.L310:
	.loc 14 111 41
	movq	24(%rbp), %rax
	salq	$7, %rax
	movq	%rax, %rcx
	call	_Znwy
	.loc 14 112 7
	addq	$32, %rsp
	popq	%rbp
	.cfi_restore 6
	.cfi_def_cfa 7, 8
	ret
	.cfi_endproc
.LFE6019:
	.seh_endproc
	.section	.text$_ZSt11__addressofISaISt23_Sp_counted_ptr_inplaceI5LevelSaIS1_ELN9__gnu_cxx12_Lock_policyE2EEEEPT_RS7_,"x"
	.linkonce discard
	.globl	_ZSt11__addressofISaISt23_Sp_counted_ptr_inplaceI5LevelSaIS1_ELN9__gnu_cxx12_Lock_policyE2EEEEPT_RS7_
	.def	_ZSt11__addressofISaISt23_Sp_counted_ptr_inplaceI5LevelSaIS1_ELN9__gnu_cxx12_Lock_policyE2EEEEPT_RS7_;	.scl	2;	.type	32;	.endef
	.seh_proc	_ZSt11__addressofISaISt23_Sp_counted_ptr_inplaceI5LevelSaIS1_ELN9__gnu_cxx12_Lock_policyE2EEEEPT_RS7_
_ZSt11__addressofISaISt23_Sp_counted_ptr_inplaceI5LevelSaIS1_ELN9__gnu_cxx12_Lock_policyE2EEEEPT_RS7_:
.LFB6020:
	.loc 13 47 5
	.cfi_startproc
	pushq	%rbp
	.seh_pushreg	%rbp
	.cfi_def_cfa_offset 16
	.cfi_offset 6, -16
	movq	%rsp, %rbp
	.seh_setframe	%rbp, 0
	.cfi_def_cfa_register 6
	.seh_endprologue
	movq	%rcx, 16(%rbp)
	.loc 13 48 37
	movq	16(%rbp), %rax
	.loc 13 48 40
	popq	%rbp
	.cfi_restore 6
	.cfi_def_cfa 7, 8
	ret
	.cfi_endproc
.LFE6020:
	.seh_endproc
	.section	.text$_ZN9__gnu_cxx13new_allocatorISt23_Sp_counted_ptr_inplaceI5LevelSaIS2_ELNS_12_Lock_policyE2EEE10deallocateEPS5_y,"x"
	.linkonce discard
	.align 2
	.globl	_ZN9__gnu_cxx13new_allocatorISt23_Sp_counted_ptr_inplaceI5LevelSaIS2_ELNS_12_Lock_policyE2EEE10deallocateEPS5_y
	.def	_ZN9__gnu_cxx13new_allocatorISt23_Sp_counted_ptr_inplaceI5LevelSaIS2_ELNS_12_Lock_policyE2EEE10deallocateEPS5_y;	.scl	2;	.type	32;	.endef
	.seh_proc	_ZN9__gnu_cxx13new_allocatorISt23_Sp_counted_ptr_inplaceI5LevelSaIS2_ELNS_12_Lock_policyE2EEE10deallocateEPS5_y
_ZN9__gnu_cxx13new_allocatorISt23_Sp_counted_ptr_inplaceI5LevelSaIS2_ELNS_12_Lock_policyE2EEE10deallocateEPS5_y:
.LFB6021:
	.loc 14 116 7
	.cfi_startproc
	pushq	%rbp
	.seh_pushreg	%rbp
	.cfi_def_cfa_offset 16
	.cfi_offset 6, -16
	movq	%rsp, %rbp
	.seh_setframe	%rbp, 0
	.cfi_def_cfa_register 6
	subq	$32, %rsp
	.seh_stackalloc	32
	.seh_endprologue
	movq	%rcx, 16(%rbp)
	movq	%rdx, 24(%rbp)
	movq	%r8, 32(%rbp)
	.loc 14 125 19
	movq	24(%rbp), %rax
	movq	%rax, %rcx
	call	_ZdlPv
	.loc 14 126 7
	nop
	addq	$32, %rsp
	popq	%rbp
	.cfi_restore 6
	.cfi_def_cfa 7, 8
	ret
	.cfi_endproc
.LFE6021:
	.seh_endproc
	.section	.text$_ZNSt14_Sp_ebo_helperILi0ESaI5LevelELb1EEC2ERKS1_,"x"
	.linkonce discard
	.align 2
	.globl	_ZNSt14_Sp_ebo_helperILi0ESaI5LevelELb1EEC2ERKS1_
	.def	_ZNSt14_Sp_ebo_helperILi0ESaI5LevelELb1EEC2ERKS1_;	.scl	2;	.type	32;	.endef
	.seh_proc	_ZNSt14_Sp_ebo_helperILi0ESaI5LevelELb1EEC2ERKS1_
_ZNSt14_Sp_ebo_helperILi0ESaI5LevelELb1EEC2ERKS1_:
.LFB6023:
	.loc 5 420 16
	.cfi_startproc
	pushq	%rbp
	.seh_pushreg	%rbp
	.cfi_def_cfa_offset 16
	.cfi_offset 6, -16
	movq	%rsp, %rbp
	.seh_setframe	%rbp, 0
	.cfi_def_cfa_register 6
	subq	$32, %rsp
	.seh_stackalloc	32
	.seh_endprologue
	movq	%rcx, 16(%rbp)
	movq	%rdx, 24(%rbp)
.LBB68:
	.loc 5 420 58
	movq	24(%rbp), %rax
	movq	%rax, %rdx
	movq	16(%rbp), %rcx
	call	_ZNSaI5LevelEC2ERKS0_
.LBE68:
	.loc 5 420 62
	nop
	addq	$32, %rsp
	popq	%rbp
	.cfi_restore 6
	.cfi_def_cfa 7, 8
	ret
	.cfi_endproc
.LFE6023:
	.seh_endproc
	.section	.text$_ZN9__gnu_cxx16__aligned_bufferI5LevelE6_M_ptrEv,"x"
	.linkonce discard
	.align 2
	.globl	_ZN9__gnu_cxx16__aligned_bufferI5LevelE6_M_ptrEv
	.def	_ZN9__gnu_cxx16__aligned_bufferI5LevelE6_M_ptrEv;	.scl	2;	.type	32;	.endef
	.seh_proc	_ZN9__gnu_cxx16__aligned_bufferI5LevelE6_M_ptrEv
_ZN9__gnu_cxx16__aligned_bufferI5LevelE6_M_ptrEv:
.LFB6025:
	.loc 22 113 7
	.cfi_startproc
	pushq	%rbp
	.seh_pushreg	%rbp
	.cfi_def_cfa_offset 16
	.cfi_offset 6, -16
	movq	%rsp, %rbp
	.seh_setframe	%rbp, 0
	.cfi_def_cfa_register 6
	subq	$32, %rsp
	.seh_stackalloc	32
	.seh_endprologue
	movq	%rcx, 16(%rbp)
	.loc 22 114 16
	movq	16(%rbp), %rcx
	call	_ZN9__gnu_cxx16__aligned_bufferI5LevelE7_M_addrEv
	.loc 22 114 46
	addq	$32, %rsp
	popq	%rbp
	.cfi_restore 6
	.cfi_def_cfa 7, 8
	ret
	.cfi_endproc
.LFE6025:
	.seh_endproc
	.section	.text$_ZN9__gnu_cxx13new_allocatorI5LevelE9constructIS1_JRKSt6vectorINSt7__cxx1112basic_stringIcSt11char_traitsIcESaIcEEESaISA_EEEEEvPT_DpOT0_,"x"
	.linkonce discard
	.align 2
	.globl	_ZN9__gnu_cxx13new_allocatorI5LevelE9constructIS1_JRKSt6vectorINSt7__cxx1112basic_stringIcSt11char_traitsIcESaIcEEESaISA_EEEEEvPT_DpOT0_
	.def	_ZN9__gnu_cxx13new_allocatorI5LevelE9constructIS1_JRKSt6vectorINSt7__cxx1112basic_stringIcSt11char_traitsIcESaIcEEESaISA_EEEEEvPT_DpOT0_;	.scl	2;	.type	32;	.endef
	.seh_proc	_ZN9__gnu_cxx13new_allocatorI5LevelE9constructIS1_JRKSt6vectorINSt7__cxx1112basic_stringIcSt11char_traitsIcESaIcEEESaISA_EEEEEvPT_DpOT0_
_ZN9__gnu_cxx13new_allocatorI5LevelE9constructIS1_JRKSt6vectorINSt7__cxx1112basic_stringIcSt11char_traitsIcESaIcEEESaISA_EEEEEvPT_DpOT0_:
.LFB6026:
	.loc 14 135 2
	.cfi_startproc
	pushq	%rbp
	.seh_pushreg	%rbp
	.cfi_def_cfa_offset 16
	.cfi_offset 6, -16
	pushq	%rdi
	.seh_pushreg	%rdi
	.cfi_def_cfa_offset 24
	.cfi_offset 5, -24
	pushq	%rsi
	.seh_pushreg	%rsi
	.cfi_def_cfa_offset 32
	.cfi_offset 4, -32
	pushq	%rbx
	.seh_pushreg	%rbx
	.cfi_def_cfa_offset 40
	.cfi_offset 3, -40
	subq	$40, %rsp
	.seh_stackalloc	40
	.cfi_def_cfa_offset 80
	leaq	128(%rsp), %rbp
	.seh_setframe	%rbp, 128
	.cfi_def_cfa 6, -48
	.seh_endprologue
	movq	%rcx, -48(%rbp)
	movq	%rdx, -40(%rbp)
	movq	%r8, -32(%rbp)
	.loc 14 136 46
	movq	-32(%rbp), %rax
	movq	%rax, %rcx
	call	_ZSt7forwardIRKSt6vectorINSt7__cxx1112basic_stringIcSt11char_traitsIcESaIcEEESaIS6_EEEOT_RNSt16remove_referenceISB_E4typeE
	movq	%rax, %rdi
	.loc 14 136 4
	movq	-40(%rbp), %rbx
	movq	%rbx, %rdx
	movl	$112, %ecx
	call	_ZnwyPv
	movq	%rax, %rsi
	movq	%rdi, %rdx
	movq	%rsi, %rcx
.LEHB31:
	call	_ZN5LevelC1ERKSt6vectorINSt7__cxx1112basic_stringIcSt11char_traitsIcESaIcEEESaIS6_EE
.LEHE31:
	.loc 14 136 60
	jmp	.L321
.L320:
	movq	%rax, %rdi
	.loc 14 136 4
	movq	%rbx, %rdx
	movq	%rsi, %rcx
	call	_ZdlPvS_
	movq	%rdi, %rax
	movq	%rax, %rcx
.LEHB32:
	call	_Unwind_Resume
	nop
.LEHE32:
.L321:
	.loc 14 136 60
	addq	$40, %rsp
	popq	%rbx
	.cfi_restore 3
	popq	%rsi
	.cfi_restore 4
	popq	%rdi
	.cfi_restore 5
	popq	%rbp
	.cfi_restore 6
	.cfi_def_cfa 7, -8
	ret
	.cfi_endproc
.LFE6026:
	.seh_handler	__gxx_personality_seh0, @unwind, @except
	.seh_handlerdata
.LLSDA6026:
	.byte	0xff
	.byte	0xff
	.byte	0x1
	.uleb128 .LLSDACSE6026-.LLSDACSB6026
.LLSDACSB6026:
	.uleb128 .LEHB31-.LFB6026
	.uleb128 .LEHE31-.LEHB31
	.uleb128 .L320-.LFB6026
	.uleb128 0
	.uleb128 .LEHB32-.LFB6026
	.uleb128 .LEHE32-.LEHB32
	.uleb128 0
	.uleb128 0
.LLSDACSE6026:
	.section	.text$_ZN9__gnu_cxx13new_allocatorI5LevelE9constructIS1_JRKSt6vectorINSt7__cxx1112basic_stringIcSt11char_traitsIcESaIcEEESaISA_EEEEEvPT_DpOT0_,"x"
	.linkonce discard
	.seh_endproc
	.section	.text$_ZNK9__gnu_cxx13new_allocatorISt23_Sp_counted_ptr_inplaceI11StartScreenSaIS2_ELNS_12_Lock_policyE2EEE8max_sizeEv,"x"
	.linkonce discard
	.align 2
	.globl	_ZNK9__gnu_cxx13new_allocatorISt23_Sp_counted_ptr_inplaceI11StartScreenSaIS2_ELNS_12_Lock_policyE2EEE8max_sizeEv
	.def	_ZNK9__gnu_cxx13new_allocatorISt23_Sp_counted_ptr_inplaceI11StartScreenSaIS2_ELNS_12_Lock_policyE2EEE8max_sizeEv;	.scl	2;	.type	32;	.endef
	.seh_proc	_ZNK9__gnu_cxx13new_allocatorISt23_Sp_counted_ptr_inplaceI11StartScreenSaIS2_ELNS_12_Lock_policyE2EEE8max_sizeEv
_ZNK9__gnu_cxx13new_allocatorISt23_Sp_counted_ptr_inplaceI11StartScreenSaIS2_ELNS_12_Lock_policyE2EEE8max_sizeEv:
.LFB6027:
	.loc 14 129 7
	.cfi_startproc
	pushq	%rbp
	.seh_pushreg	%rbp
	.cfi_def_cfa_offset 16
	.cfi_offset 6, -16
	movq	%rsp, %rbp
	.seh_setframe	%rbp, 0
	.cfi_def_cfa_register 6
	.seh_endprologue
	movq	%rcx, 16(%rbp)
	.loc 14 130 39
	movabsq	$384307168202282325, %rax
	.loc 14 130 42
	popq	%rbp
	.cfi_restore 6
	.cfi_def_cfa 7, 8
	ret
	.cfi_endproc
.LFE6027:
	.seh_endproc
	.section	.text$_ZN9__gnu_cxx16__aligned_bufferI11StartScreenE7_M_addrEv,"x"
	.linkonce discard
	.align 2
	.globl	_ZN9__gnu_cxx16__aligned_bufferI11StartScreenE7_M_addrEv
	.def	_ZN9__gnu_cxx16__aligned_bufferI11StartScreenE7_M_addrEv;	.scl	2;	.type	32;	.endef
	.seh_proc	_ZN9__gnu_cxx16__aligned_bufferI11StartScreenE7_M_addrEv
_ZN9__gnu_cxx16__aligned_bufferI11StartScreenE7_M_addrEv:
.LFB6028:
	.loc 22 101 7
	.cfi_startproc
	pushq	%rbp
	.seh_pushreg	%rbp
	.cfi_def_cfa_offset 16
	.cfi_offset 6, -16
	movq	%rsp, %rbp
	.seh_setframe	%rbp, 0
	.cfi_def_cfa_register 6
	.seh_endprologue
	movq	%rcx, 16(%rbp)
	.loc 22 103 46
	movq	16(%rbp), %rax
	.loc 22 104 7
	popq	%rbp
	.cfi_restore 6
	.cfi_def_cfa 7, 8
	ret
	.cfi_endproc
.LFE6028:
	.seh_endproc
	.section	.text$_ZNK9__gnu_cxx13new_allocatorISt23_Sp_counted_ptr_inplaceI5LevelSaIS2_ELNS_12_Lock_policyE2EEE8max_sizeEv,"x"
	.linkonce discard
	.align 2
	.globl	_ZNK9__gnu_cxx13new_allocatorISt23_Sp_counted_ptr_inplaceI5LevelSaIS2_ELNS_12_Lock_policyE2EEE8max_sizeEv
	.def	_ZNK9__gnu_cxx13new_allocatorISt23_Sp_counted_ptr_inplaceI5LevelSaIS2_ELNS_12_Lock_policyE2EEE8max_sizeEv;	.scl	2;	.type	32;	.endef
	.seh_proc	_ZNK9__gnu_cxx13new_allocatorISt23_Sp_counted_ptr_inplaceI5LevelSaIS2_ELNS_12_Lock_policyE2EEE8max_sizeEv
_ZNK9__gnu_cxx13new_allocatorISt23_Sp_counted_ptr_inplaceI5LevelSaIS2_ELNS_12_Lock_policyE2EEE8max_sizeEv:
.LFB6029:
	.loc 14 129 7
	.cfi_startproc
	pushq	%rbp
	.seh_pushreg	%rbp
	.cfi_def_cfa_offset 16
	.cfi_offset 6, -16
	movq	%rsp, %rbp
	.seh_setframe	%rbp, 0
	.cfi_def_cfa_register 6
	.seh_endprologue
	movq	%rcx, 16(%rbp)
	.loc 14 130 39
	movabsq	$144115188075855871, %rax
	.loc 14 130 42
	popq	%rbp
	.cfi_restore 6
	.cfi_def_cfa 7, 8
	ret
	.cfi_endproc
.LFE6029:
	.seh_endproc
	.section	.text$_ZN9__gnu_cxx16__aligned_bufferI5LevelE7_M_addrEv,"x"
	.linkonce discard
	.align 2
	.globl	_ZN9__gnu_cxx16__aligned_bufferI5LevelE7_M_addrEv
	.def	_ZN9__gnu_cxx16__aligned_bufferI5LevelE7_M_addrEv;	.scl	2;	.type	32;	.endef
	.seh_proc	_ZN9__gnu_cxx16__aligned_bufferI5LevelE7_M_addrEv
_ZN9__gnu_cxx16__aligned_bufferI5LevelE7_M_addrEv:
.LFB6030:
	.loc 22 101 7
	.cfi_startproc
	pushq	%rbp
	.seh_pushreg	%rbp
	.cfi_def_cfa_offset 16
	.cfi_offset 6, -16
	movq	%rsp, %rbp
	.seh_setframe	%rbp, 0
	.cfi_def_cfa_register 6
	.seh_endprologue
	movq	%rcx, 16(%rbp)
	.loc 22 103 46
	movq	16(%rbp), %rax
	.loc 22 104 7
	popq	%rbp
	.cfi_restore 6
	.cfi_def_cfa 7, 8
	ret
	.cfi_endproc
.LFE6030:
	.seh_endproc
	.globl	_ZTVSt23_Sp_counted_ptr_inplaceI5LevelSaIS0_ELN9__gnu_cxx12_Lock_policyE2EE
	.section	.rdata$_ZTVSt23_Sp_counted_ptr_inplaceI5LevelSaIS0_ELN9__gnu_cxx12_Lock_policyE2EE,"dr"
	.linkonce same_size
	.align 8
_ZTVSt23_Sp_counted_ptr_inplaceI5LevelSaIS0_ELN9__gnu_cxx12_Lock_policyE2EE:
	.quad	0
	.quad	_ZTISt23_Sp_counted_ptr_inplaceI5LevelSaIS0_ELN9__gnu_cxx12_Lock_policyE2EE
	.quad	_ZNSt23_Sp_counted_ptr_inplaceI5LevelSaIS0_ELN9__gnu_cxx12_Lock_policyE2EED1Ev
	.quad	_ZNSt23_Sp_counted_ptr_inplaceI5LevelSaIS0_ELN9__gnu_cxx12_Lock_policyE2EED0Ev
	.quad	_ZNSt23_Sp_counted_ptr_inplaceI5LevelSaIS0_ELN9__gnu_cxx12_Lock_policyE2EE10_M_disposeEv
	.quad	_ZNSt23_Sp_counted_ptr_inplaceI5LevelSaIS0_ELN9__gnu_cxx12_Lock_policyE2EE10_M_destroyEv
	.quad	_ZNSt23_Sp_counted_ptr_inplaceI5LevelSaIS0_ELN9__gnu_cxx12_Lock_policyE2EE14_M_get_deleterERKSt9type_info
	.globl	_ZTVSt23_Sp_counted_ptr_inplaceI11StartScreenSaIS0_ELN9__gnu_cxx12_Lock_policyE2EE
	.section	.rdata$_ZTVSt23_Sp_counted_ptr_inplaceI11StartScreenSaIS0_ELN9__gnu_cxx12_Lock_policyE2EE,"dr"
	.linkonce same_size
	.align 8
_ZTVSt23_Sp_counted_ptr_inplaceI11StartScreenSaIS0_ELN9__gnu_cxx12_Lock_policyE2EE:
	.quad	0
	.quad	_ZTISt23_Sp_counted_ptr_inplaceI11StartScreenSaIS0_ELN9__gnu_cxx12_Lock_policyE2EE
	.quad	_ZNSt23_Sp_counted_ptr_inplaceI11StartScreenSaIS0_ELN9__gnu_cxx12_Lock_policyE2EED1Ev
	.quad	_ZNSt23_Sp_counted_ptr_inplaceI11StartScreenSaIS0_ELN9__gnu_cxx12_Lock_policyE2EED0Ev
	.quad	_ZNSt23_Sp_counted_ptr_inplaceI11StartScreenSaIS0_ELN9__gnu_cxx12_Lock_policyE2EE10_M_disposeEv
	.quad	_ZNSt23_Sp_counted_ptr_inplaceI11StartScreenSaIS0_ELN9__gnu_cxx12_Lock_policyE2EE10_M_destroyEv
	.quad	_ZNSt23_Sp_counted_ptr_inplaceI11StartScreenSaIS0_ELN9__gnu_cxx12_Lock_policyE2EE14_M_get_deleterERKSt9type_info
	.globl	_ZTVSt16_Sp_counted_baseILN9__gnu_cxx12_Lock_policyE2EE
	.section	.rdata$_ZTVSt16_Sp_counted_baseILN9__gnu_cxx12_Lock_policyE2EE,"dr"
	.linkonce same_size
	.align 8
_ZTVSt16_Sp_counted_baseILN9__gnu_cxx12_Lock_policyE2EE:
	.quad	0
	.quad	_ZTISt16_Sp_counted_baseILN9__gnu_cxx12_Lock_policyE2EE
	.quad	0
	.quad	0
	.quad	__cxa_pure_virtual
	.quad	_ZNSt16_Sp_counted_baseILN9__gnu_cxx12_Lock_policyE2EE10_M_destroyEv
	.quad	__cxa_pure_virtual
	.globl	_ZTISt23_Sp_counted_ptr_inplaceI5LevelSaIS0_ELN9__gnu_cxx12_Lock_policyE2EE
	.section	.rdata$_ZTISt23_Sp_counted_ptr_inplaceI5LevelSaIS0_ELN9__gnu_cxx12_Lock_policyE2EE,"dr"
	.linkonce same_size
	.align 8
_ZTISt23_Sp_counted_ptr_inplaceI5LevelSaIS0_ELN9__gnu_cxx12_Lock_policyE2EE:
	.quad	_ZTVN10__cxxabiv120__si_class_type_infoE+16
	.quad	_ZTSSt23_Sp_counted_ptr_inplaceI5LevelSaIS0_ELN9__gnu_cxx12_Lock_policyE2EE
	.quad	_ZTISt16_Sp_counted_baseILN9__gnu_cxx12_Lock_policyE2EE
	.globl	_ZTSSt23_Sp_counted_ptr_inplaceI5LevelSaIS0_ELN9__gnu_cxx12_Lock_policyE2EE
	.section	.rdata$_ZTSSt23_Sp_counted_ptr_inplaceI5LevelSaIS0_ELN9__gnu_cxx12_Lock_policyE2EE,"dr"
	.linkonce same_size
	.align 32
_ZTSSt23_Sp_counted_ptr_inplaceI5LevelSaIS0_ELN9__gnu_cxx12_Lock_policyE2EE:
	.ascii "St23_Sp_counted_ptr_inplaceI5LevelSaIS0_ELN9__gnu_cxx12_Lock_policyE2EE\0"
	.globl	_ZTISt23_Sp_counted_ptr_inplaceI11StartScreenSaIS0_ELN9__gnu_cxx12_Lock_policyE2EE
	.section	.rdata$_ZTISt23_Sp_counted_ptr_inplaceI11StartScreenSaIS0_ELN9__gnu_cxx12_Lock_policyE2EE,"dr"
	.linkonce same_size
	.align 8
_ZTISt23_Sp_counted_ptr_inplaceI11StartScreenSaIS0_ELN9__gnu_cxx12_Lock_policyE2EE:
	.quad	_ZTVN10__cxxabiv120__si_class_type_infoE+16
	.quad	_ZTSSt23_Sp_counted_ptr_inplaceI11StartScreenSaIS0_ELN9__gnu_cxx12_Lock_policyE2EE
	.quad	_ZTISt16_Sp_counted_baseILN9__gnu_cxx12_Lock_policyE2EE
	.globl	_ZTSSt23_Sp_counted_ptr_inplaceI11StartScreenSaIS0_ELN9__gnu_cxx12_Lock_policyE2EE
	.section	.rdata$_ZTSSt23_Sp_counted_ptr_inplaceI11StartScreenSaIS0_ELN9__gnu_cxx12_Lock_policyE2EE,"dr"
	.linkonce same_size
	.align 32
_ZTSSt23_Sp_counted_ptr_inplaceI11StartScreenSaIS0_ELN9__gnu_cxx12_Lock_policyE2EE:
	.ascii "St23_Sp_counted_ptr_inplaceI11StartScreenSaIS0_ELN9__gnu_cxx12_Lock_policyE2EE\0"
	.globl	_ZTISt19_Sp_make_shared_tag
	.section	.rdata$_ZTISt19_Sp_make_shared_tag,"dr"
	.linkonce same_size
	.align 8
_ZTISt19_Sp_make_shared_tag:
	.quad	_ZTVN10__cxxabiv117__class_type_infoE+16
	.quad	_ZTSSt19_Sp_make_shared_tag
	.globl	_ZTSSt19_Sp_make_shared_tag
	.section	.rdata$_ZTSSt19_Sp_make_shared_tag,"dr"
	.linkonce same_size
	.align 16
_ZTSSt19_Sp_make_shared_tag:
	.ascii "St19_Sp_make_shared_tag\0"
	.globl	_ZTISt16_Sp_counted_baseILN9__gnu_cxx12_Lock_policyE2EE
	.section	.rdata$_ZTISt16_Sp_counted_baseILN9__gnu_cxx12_Lock_policyE2EE,"dr"
	.linkonce same_size
	.align 8
_ZTISt16_Sp_counted_baseILN9__gnu_cxx12_Lock_policyE2EE:
	.quad	_ZTVN10__cxxabiv120__si_class_type_infoE+16
	.quad	_ZTSSt16_Sp_counted_baseILN9__gnu_cxx12_Lock_policyE2EE
	.quad	_ZTISt11_Mutex_baseILN9__gnu_cxx12_Lock_policyE2EE
	.globl	_ZTSSt16_Sp_counted_baseILN9__gnu_cxx12_Lock_policyE2EE
	.section	.rdata$_ZTSSt16_Sp_counted_baseILN9__gnu_cxx12_Lock_policyE2EE,"dr"
	.linkonce same_size
	.align 32
_ZTSSt16_Sp_counted_baseILN9__gnu_cxx12_Lock_policyE2EE:
	.ascii "St16_Sp_counted_baseILN9__gnu_cxx12_Lock_policyE2EE\0"
	.text
	.def	__tcf_0;	.scl	3;	.type	32;	.endef
	.seh_proc	__tcf_0
__tcf_0:
.LFB6048:
	.file 23 "C:/Program Files/CodeBlocks/MinGW/lib/gcc/x86_64-w64-mingw32/8.1.0/include/c++/iostream"
	.loc 23 74 25
	.cfi_startproc
	pushq	%rbp
	.seh_pushreg	%rbp
	.cfi_def_cfa_offset 16
	.cfi_offset 6, -16
	movq	%rsp, %rbp
	.seh_setframe	%rbp, 0
	.cfi_def_cfa_register 6
	subq	$32, %rsp
	.seh_stackalloc	32
	.seh_endprologue
	.loc 23 74 25
	leaq	_ZStL8__ioinit(%rip), %rcx
	call	_ZNSt8ios_base4InitD1Ev
	nop
	addq	$32, %rsp
	popq	%rbp
	.cfi_restore 6
	.cfi_def_cfa 7, 8
	ret
	.cfi_endproc
.LFE6048:
	.seh_endproc
	.def	_Z41__static_initialization_and_destruction_0ii;	.scl	3;	.type	32;	.endef
	.seh_proc	_Z41__static_initialization_and_destruction_0ii
_Z41__static_initialization_and_destruction_0ii:
.LFB6047:
	.loc 7 103 2
	.cfi_startproc
	pushq	%rbp
	.seh_pushreg	%rbp
	.cfi_def_cfa_offset 16
	.cfi_offset 6, -16
	movq	%rsp, %rbp
	.seh_setframe	%rbp, 0
	.cfi_def_cfa_register 6
	subq	$32, %rsp
	.seh_stackalloc	32
	.seh_endprologue
	movl	%ecx, 16(%rbp)
	movl	%edx, 24(%rbp)
	.loc 7 103 2
	cmpl	$1, 16(%rbp)
	jne	.L333
	.loc 7 103 2 is_stmt 0 discriminator 1
	cmpl	$65535, 24(%rbp)
	jne	.L333
	.loc 23 74 25 is_stmt 1
	leaq	_ZStL8__ioinit(%rip), %rcx
	call	_ZNSt8ios_base4InitC1Ev
	leaq	__tcf_0(%rip), %rcx
	call	atexit
.L333:
	.loc 7 103 2
	nop
	addq	$32, %rsp
	popq	%rbp
	.cfi_restore 6
	.cfi_def_cfa 7, 8
	ret
	.cfi_endproc
.LFE6047:
	.seh_endproc
	.section	.text$_ZNSt23_Sp_counted_ptr_inplaceI5LevelSaIS0_ELN9__gnu_cxx12_Lock_policyE2EED1Ev,"x"
	.linkonce discard
	.align 2
	.globl	_ZNSt23_Sp_counted_ptr_inplaceI5LevelSaIS0_ELN9__gnu_cxx12_Lock_policyE2EED1Ev
	.def	_ZNSt23_Sp_counted_ptr_inplaceI5LevelSaIS0_ELN9__gnu_cxx12_Lock_policyE2EED1Ev;	.scl	2;	.type	32;	.endef
	.seh_proc	_ZNSt23_Sp_counted_ptr_inplaceI5LevelSaIS0_ELN9__gnu_cxx12_Lock_policyE2EED1Ev
_ZNSt23_Sp_counted_ptr_inplaceI5LevelSaIS0_ELN9__gnu_cxx12_Lock_policyE2EED1Ev:
.LFB6051:
	.loc 5 553 7
	.cfi_startproc
	pushq	%rbp
	.seh_pushreg	%rbp
	.cfi_def_cfa_offset 16
	.cfi_offset 6, -16
	movq	%rsp, %rbp
	.seh_setframe	%rbp, 0
	.cfi_def_cfa_register 6
	subq	$32, %rsp
	.seh_stackalloc	32
	.seh_endprologue
	movq	%rcx, 16(%rbp)
.LBB69:
	.loc 5 553 45
	leaq	16+_ZTVSt23_Sp_counted_ptr_inplaceI5LevelSaIS0_ELN9__gnu_cxx12_Lock_policyE2EE(%rip), %rdx
	movq	16(%rbp), %rax
	movq	%rdx, (%rax)
	movq	16(%rbp), %rax
	addq	$16, %rax
	movq	%rax, %rcx
	call	_ZNSt23_Sp_counted_ptr_inplaceI5LevelSaIS0_ELN9__gnu_cxx12_Lock_policyE2EE5_ImplD1Ev
	movq	16(%rbp), %rax
	movq	%rax, %rcx
	call	_ZNSt16_Sp_counted_baseILN9__gnu_cxx12_Lock_policyE2EED2Ev
.LBE69:
	nop
	addq	$32, %rsp
	popq	%rbp
	.cfi_restore 6
	.cfi_def_cfa 7, 8
	ret
	.cfi_endproc
.LFE6051:
	.seh_endproc
	.section	.text$_ZNSt23_Sp_counted_ptr_inplaceI5LevelSaIS0_ELN9__gnu_cxx12_Lock_policyE2EED0Ev,"x"
	.linkonce discard
	.align 2
	.globl	_ZNSt23_Sp_counted_ptr_inplaceI5LevelSaIS0_ELN9__gnu_cxx12_Lock_policyE2EED0Ev
	.def	_ZNSt23_Sp_counted_ptr_inplaceI5LevelSaIS0_ELN9__gnu_cxx12_Lock_policyE2EED0Ev;	.scl	2;	.type	32;	.endef
	.seh_proc	_ZNSt23_Sp_counted_ptr_inplaceI5LevelSaIS0_ELN9__gnu_cxx12_Lock_policyE2EED0Ev
_ZNSt23_Sp_counted_ptr_inplaceI5LevelSaIS0_ELN9__gnu_cxx12_Lock_policyE2EED0Ev:
.LFB6052:
	.loc 5 553 7
	.cfi_startproc
	pushq	%rbp
	.seh_pushreg	%rbp
	.cfi_def_cfa_offset 16
	.cfi_offset 6, -16
	movq	%rsp, %rbp
	.seh_setframe	%rbp, 0
	.cfi_def_cfa_register 6
	subq	$32, %rsp
	.seh_stackalloc	32
	.seh_endprologue
	movq	%rcx, 16(%rbp)
	.loc 5 553 45
	movq	16(%rbp), %rcx
	call	_ZNSt23_Sp_counted_ptr_inplaceI5LevelSaIS0_ELN9__gnu_cxx12_Lock_policyE2EED1Ev
	movl	$128, %edx
	movq	16(%rbp), %rcx
	call	_ZdlPvy
	nop
	addq	$32, %rsp
	popq	%rbp
	.cfi_restore 6
	.cfi_def_cfa 7, 8
	ret
	.cfi_endproc
.LFE6052:
	.seh_endproc
	.section	.text$_ZNSt23_Sp_counted_ptr_inplaceI5LevelSaIS0_ELN9__gnu_cxx12_Lock_policyE2EE10_M_disposeEv,"x"
	.linkonce discard
	.align 2
	.globl	_ZNSt23_Sp_counted_ptr_inplaceI5LevelSaIS0_ELN9__gnu_cxx12_Lock_policyE2EE10_M_disposeEv
	.def	_ZNSt23_Sp_counted_ptr_inplaceI5LevelSaIS0_ELN9__gnu_cxx12_Lock_policyE2EE10_M_disposeEv;	.scl	2;	.type	32;	.endef
	.seh_proc	_ZNSt23_Sp_counted_ptr_inplaceI5LevelSaIS0_ELN9__gnu_cxx12_Lock_policyE2EE10_M_disposeEv
_ZNSt23_Sp_counted_ptr_inplaceI5LevelSaIS0_ELN9__gnu_cxx12_Lock_policyE2EE10_M_disposeEv:
.LFB6053:
	.loc 5 556 7
	.cfi_startproc
	pushq	%rbp
	.seh_pushreg	%rbp
	.cfi_def_cfa_offset 16
	.cfi_offset 6, -16
	pushq	%rbx
	.seh_pushreg	%rbx
	.cfi_def_cfa_offset 24
	.cfi_offset 3, -24
	subq	$40, %rsp
	.seh_stackalloc	40
	.cfi_def_cfa_offset 64
	leaq	128(%rsp), %rbp
	.seh_setframe	%rbp, 128
	.cfi_def_cfa 6, -64
	.seh_endprologue
	movq	%rcx, -64(%rbp)
	.loc 5 558 35
	movq	-64(%rbp), %rcx
	call	_ZNSt23_Sp_counted_ptr_inplaceI5LevelSaIS0_ELN9__gnu_cxx12_Lock_policyE2EE6_M_ptrEv
	movq	%rax, %rbx
	movq	-64(%rbp), %rax
	addq	$16, %rax
	movq	%rax, %rcx
	call	_ZNSt23_Sp_counted_ptr_inplaceI5LevelSaIS0_ELN9__gnu_cxx12_Lock_policyE2EE5_Impl8_M_allocEv
	movq	%rbx, %rdx
	movq	%rax, %rcx
	call	_ZNSt16allocator_traitsISaI5LevelEE7destroyIS0_EEvRS1_PT_
	.loc 5 559 7
	nop
	addq	$40, %rsp
	popq	%rbx
	.cfi_restore 3
	popq	%rbp
	.cfi_restore 6
	.cfi_def_cfa 7, -24
	ret
	.cfi_endproc
.LFE6053:
	.seh_handler	__gxx_personality_seh0, @unwind, @except
	.seh_handlerdata
.LLSDA6053:
	.byte	0xff
	.byte	0xff
	.byte	0x1
	.uleb128 .LLSDACSE6053-.LLSDACSB6053
.LLSDACSB6053:
.LLSDACSE6053:
	.section	.text$_ZNSt23_Sp_counted_ptr_inplaceI5LevelSaIS0_ELN9__gnu_cxx12_Lock_policyE2EE10_M_disposeEv,"x"
	.linkonce discard
	.seh_endproc
	.section	.text$_ZNSt23_Sp_counted_ptr_inplaceI5LevelSaIS0_ELN9__gnu_cxx12_Lock_policyE2EE10_M_destroyEv,"x"
	.linkonce discard
	.align 2
	.globl	_ZNSt23_Sp_counted_ptr_inplaceI5LevelSaIS0_ELN9__gnu_cxx12_Lock_policyE2EE10_M_destroyEv
	.def	_ZNSt23_Sp_counted_ptr_inplaceI5LevelSaIS0_ELN9__gnu_cxx12_Lock_policyE2EE10_M_destroyEv;	.scl	2;	.type	32;	.endef
	.seh_proc	_ZNSt23_Sp_counted_ptr_inplaceI5LevelSaIS0_ELN9__gnu_cxx12_Lock_policyE2EE10_M_destroyEv
_ZNSt23_Sp_counted_ptr_inplaceI5LevelSaIS0_ELN9__gnu_cxx12_Lock_policyE2EE10_M_destroyEv:
.LFB6054:
	.loc 5 563 7
	.cfi_startproc
	pushq	%rbp
	.seh_pushreg	%rbp
	.cfi_def_cfa_offset 16
	.cfi_offset 6, -16
	movq	%rsp, %rbp
	.seh_setframe	%rbp, 0
	.cfi_def_cfa_register 6
	subq	$64, %rsp
	.seh_stackalloc	64
	.seh_endprologue
	movq	%rcx, 16(%rbp)
	.loc 5 565 19
	movq	16(%rbp), %rax
	addq	$16, %rax
	movq	%rax, %rcx
	call	_ZNSt23_Sp_counted_ptr_inplaceI5LevelSaIS0_ELN9__gnu_cxx12_Lock_policyE2EE5_Impl8_M_allocEv
	movq	%rax, %rdx
	leaq	-1(%rbp), %rax
	movq	%rax, %rcx
	call	_ZNSaISt23_Sp_counted_ptr_inplaceI5LevelSaIS0_ELN9__gnu_cxx12_Lock_policyE2EEEC1IS0_EERKSaIT_E
	.loc 5 566 36
	leaq	-1(%rbp), %rdx
	leaq	-32(%rbp), %rax
	movq	16(%rbp), %r8
	movq	%rax, %rcx
	call	_ZNSt15__allocated_ptrISaISt23_Sp_counted_ptr_inplaceI5LevelSaIS1_ELN9__gnu_cxx12_Lock_policyE2EEEEC1ERS6_PS5_
	.loc 5 567 2
	movq	16(%rbp), %rcx
	call	_ZNSt23_Sp_counted_ptr_inplaceI5LevelSaIS0_ELN9__gnu_cxx12_Lock_policyE2EED1Ev
	.loc 5 566 36
	leaq	-32(%rbp), %rax
	movq	%rax, %rcx
	call	_ZNSt15__allocated_ptrISaISt23_Sp_counted_ptr_inplaceI5LevelSaIS1_ELN9__gnu_cxx12_Lock_policyE2EEEED1Ev
	.loc 5 565 19
	leaq	-1(%rbp), %rax
	movq	%rax, %rcx
	call	_ZNSaISt23_Sp_counted_ptr_inplaceI5LevelSaIS0_ELN9__gnu_cxx12_Lock_policyE2EEED1Ev
	.loc 5 568 7
	nop
	addq	$64, %rsp
	popq	%rbp
	.cfi_restore 6
	.cfi_def_cfa 7, 8
	ret
	.cfi_endproc
.LFE6054:
	.seh_endproc
	.section	.text$_ZNSt23_Sp_counted_ptr_inplaceI5LevelSaIS0_ELN9__gnu_cxx12_Lock_policyE2EE14_M_get_deleterERKSt9type_info,"x"
	.linkonce discard
	.align 2
	.globl	_ZNSt23_Sp_counted_ptr_inplaceI5LevelSaIS0_ELN9__gnu_cxx12_Lock_policyE2EE14_M_get_deleterERKSt9type_info
	.def	_ZNSt23_Sp_counted_ptr_inplaceI5LevelSaIS0_ELN9__gnu_cxx12_Lock_policyE2EE14_M_get_deleterERKSt9type_info;	.scl	2;	.type	32;	.endef
	.seh_proc	_ZNSt23_Sp_counted_ptr_inplaceI5LevelSaIS0_ELN9__gnu_cxx12_Lock_policyE2EE14_M_get_deleterERKSt9type_info
_ZNSt23_Sp_counted_ptr_inplaceI5LevelSaIS0_ELN9__gnu_cxx12_Lock_policyE2EE14_M_get_deleterERKSt9type_info:
.LFB6055:
	.loc 5 572 7
	.cfi_startproc
	pushq	%rbp
	.seh_pushreg	%rbp
	.cfi_def_cfa_offset 16
	.cfi_offset 6, -16
	movq	%rsp, %rbp
	.seh_setframe	%rbp, 0
	.cfi_def_cfa_register 6
	subq	$32, %rsp
	.seh_stackalloc	32
	.seh_endprologue
	movq	%rcx, 16(%rbp)
	movq	%rdx, 24(%rbp)
	.loc 5 575 11
	movq	24(%rbp), %rax
	leaq	_ZTISt19_Sp_make_shared_tag(%rip), %rdx
	movq	%rax, %rcx
	call	_ZNKSt9type_infoeqERKS_
	.loc 5 575 2
	testb	%al, %al
	je	.L339
	.loc 5 579 11
	movq	16(%rbp), %rcx
	call	_ZNSt23_Sp_counted_ptr_inplaceI5LevelSaIS0_ELN9__gnu_cxx12_Lock_policyE2EE6_M_ptrEv
	.loc 5 579 62
	jmp	.L340
.L339:
	.loc 5 580 9
	movl	$0, %eax
.L340:
	.loc 5 581 7
	addq	$32, %rsp
	popq	%rbp
	.cfi_restore 6
	.cfi_def_cfa 7, 8
	ret
	.cfi_endproc
.LFE6055:
	.seh_endproc
	.section	.text$_ZNSt23_Sp_counted_ptr_inplaceI11StartScreenSaIS0_ELN9__gnu_cxx12_Lock_policyE2EED1Ev,"x"
	.linkonce discard
	.align 2
	.globl	_ZNSt23_Sp_counted_ptr_inplaceI11StartScreenSaIS0_ELN9__gnu_cxx12_Lock_policyE2EED1Ev
	.def	_ZNSt23_Sp_counted_ptr_inplaceI11StartScreenSaIS0_ELN9__gnu_cxx12_Lock_policyE2EED1Ev;	.scl	2;	.type	32;	.endef
	.seh_proc	_ZNSt23_Sp_counted_ptr_inplaceI11StartScreenSaIS0_ELN9__gnu_cxx12_Lock_policyE2EED1Ev
_ZNSt23_Sp_counted_ptr_inplaceI11StartScreenSaIS0_ELN9__gnu_cxx12_Lock_policyE2EED1Ev:
.LFB6058:
	.loc 5 553 7
	.cfi_startproc
	pushq	%rbp
	.seh_pushreg	%rbp
	.cfi_def_cfa_offset 16
	.cfi_offset 6, -16
	movq	%rsp, %rbp
	.seh_setframe	%rbp, 0
	.cfi_def_cfa_register 6
	subq	$32, %rsp
	.seh_stackalloc	32
	.seh_endprologue
	movq	%rcx, 16(%rbp)
.LBB70:
	.loc 5 553 45
	leaq	16+_ZTVSt23_Sp_counted_ptr_inplaceI11StartScreenSaIS0_ELN9__gnu_cxx12_Lock_policyE2EE(%rip), %rdx
	movq	16(%rbp), %rax
	movq	%rdx, (%rax)
	movq	16(%rbp), %rax
	addq	$16, %rax
	movq	%rax, %rcx
	call	_ZNSt23_Sp_counted_ptr_inplaceI11StartScreenSaIS0_ELN9__gnu_cxx12_Lock_policyE2EE5_ImplD1Ev
	movq	16(%rbp), %rax
	movq	%rax, %rcx
	call	_ZNSt16_Sp_counted_baseILN9__gnu_cxx12_Lock_policyE2EED2Ev
.LBE70:
	nop
	addq	$32, %rsp
	popq	%rbp
	.cfi_restore 6
	.cfi_def_cfa 7, 8
	ret
	.cfi_endproc
.LFE6058:
	.seh_endproc
	.section	.text$_ZNSt23_Sp_counted_ptr_inplaceI11StartScreenSaIS0_ELN9__gnu_cxx12_Lock_policyE2EED0Ev,"x"
	.linkonce discard
	.align 2
	.globl	_ZNSt23_Sp_counted_ptr_inplaceI11StartScreenSaIS0_ELN9__gnu_cxx12_Lock_policyE2EED0Ev
	.def	_ZNSt23_Sp_counted_ptr_inplaceI11StartScreenSaIS0_ELN9__gnu_cxx12_Lock_policyE2EED0Ev;	.scl	2;	.type	32;	.endef
	.seh_proc	_ZNSt23_Sp_counted_ptr_inplaceI11StartScreenSaIS0_ELN9__gnu_cxx12_Lock_policyE2EED0Ev
_ZNSt23_Sp_counted_ptr_inplaceI11StartScreenSaIS0_ELN9__gnu_cxx12_Lock_policyE2EED0Ev:
.LFB6059:
	.loc 5 553 7
	.cfi_startproc
	pushq	%rbp
	.seh_pushreg	%rbp
	.cfi_def_cfa_offset 16
	.cfi_offset 6, -16
	movq	%rsp, %rbp
	.seh_setframe	%rbp, 0
	.cfi_def_cfa_register 6
	subq	$32, %rsp
	.seh_stackalloc	32
	.seh_endprologue
	movq	%rcx, 16(%rbp)
	.loc 5 553 45
	movq	16(%rbp), %rcx
	call	_ZNSt23_Sp_counted_ptr_inplaceI11StartScreenSaIS0_ELN9__gnu_cxx12_Lock_policyE2EED1Ev
	movl	$48, %edx
	movq	16(%rbp), %rcx
	call	_ZdlPvy
	nop
	addq	$32, %rsp
	popq	%rbp
	.cfi_restore 6
	.cfi_def_cfa 7, 8
	ret
	.cfi_endproc
.LFE6059:
	.seh_endproc
	.section	.text$_ZNSt23_Sp_counted_ptr_inplaceI11StartScreenSaIS0_ELN9__gnu_cxx12_Lock_policyE2EE10_M_disposeEv,"x"
	.linkonce discard
	.align 2
	.globl	_ZNSt23_Sp_counted_ptr_inplaceI11StartScreenSaIS0_ELN9__gnu_cxx12_Lock_policyE2EE10_M_disposeEv
	.def	_ZNSt23_Sp_counted_ptr_inplaceI11StartScreenSaIS0_ELN9__gnu_cxx12_Lock_policyE2EE10_M_disposeEv;	.scl	2;	.type	32;	.endef
	.seh_proc	_ZNSt23_Sp_counted_ptr_inplaceI11StartScreenSaIS0_ELN9__gnu_cxx12_Lock_policyE2EE10_M_disposeEv
_ZNSt23_Sp_counted_ptr_inplaceI11StartScreenSaIS0_ELN9__gnu_cxx12_Lock_policyE2EE10_M_disposeEv:
.LFB6060:
	.loc 5 556 7
	.cfi_startproc
	pushq	%rbp
	.seh_pushreg	%rbp
	.cfi_def_cfa_offset 16
	.cfi_offset 6, -16
	pushq	%rbx
	.seh_pushreg	%rbx
	.cfi_def_cfa_offset 24
	.cfi_offset 3, -24
	subq	$40, %rsp
	.seh_stackalloc	40
	.cfi_def_cfa_offset 64
	leaq	128(%rsp), %rbp
	.seh_setframe	%rbp, 128
	.cfi_def_cfa 6, -64
	.seh_endprologue
	movq	%rcx, -64(%rbp)
	.loc 5 558 35
	movq	-64(%rbp), %rcx
	call	_ZNSt23_Sp_counted_ptr_inplaceI11StartScreenSaIS0_ELN9__gnu_cxx12_Lock_policyE2EE6_M_ptrEv
	movq	%rax, %rbx
	movq	-64(%rbp), %rax
	addq	$16, %rax
	movq	%rax, %rcx
	call	_ZNSt23_Sp_counted_ptr_inplaceI11StartScreenSaIS0_ELN9__gnu_cxx12_Lock_policyE2EE5_Impl8_M_allocEv
	movq	%rbx, %rdx
	movq	%rax, %rcx
	call	_ZNSt16allocator_traitsISaI11StartScreenEE7destroyIS0_EEvRS1_PT_
	.loc 5 559 7
	nop
	addq	$40, %rsp
	popq	%rbx
	.cfi_restore 3
	popq	%rbp
	.cfi_restore 6
	.cfi_def_cfa 7, -24
	ret
	.cfi_endproc
.LFE6060:
	.seh_handler	__gxx_personality_seh0, @unwind, @except
	.seh_handlerdata
.LLSDA6060:
	.byte	0xff
	.byte	0xff
	.byte	0x1
	.uleb128 .LLSDACSE6060-.LLSDACSB6060
.LLSDACSB6060:
.LLSDACSE6060:
	.section	.text$_ZNSt23_Sp_counted_ptr_inplaceI11StartScreenSaIS0_ELN9__gnu_cxx12_Lock_policyE2EE10_M_disposeEv,"x"
	.linkonce discard
	.seh_endproc
	.section	.text$_ZNSt23_Sp_counted_ptr_inplaceI11StartScreenSaIS0_ELN9__gnu_cxx12_Lock_policyE2EE10_M_destroyEv,"x"
	.linkonce discard
	.align 2
	.globl	_ZNSt23_Sp_counted_ptr_inplaceI11StartScreenSaIS0_ELN9__gnu_cxx12_Lock_policyE2EE10_M_destroyEv
	.def	_ZNSt23_Sp_counted_ptr_inplaceI11StartScreenSaIS0_ELN9__gnu_cxx12_Lock_policyE2EE10_M_destroyEv;	.scl	2;	.type	32;	.endef
	.seh_proc	_ZNSt23_Sp_counted_ptr_inplaceI11StartScreenSaIS0_ELN9__gnu_cxx12_Lock_policyE2EE10_M_destroyEv
_ZNSt23_Sp_counted_ptr_inplaceI11StartScreenSaIS0_ELN9__gnu_cxx12_Lock_policyE2EE10_M_destroyEv:
.LFB6061:
	.loc 5 563 7
	.cfi_startproc
	pushq	%rbp
	.seh_pushreg	%rbp
	.cfi_def_cfa_offset 16
	.cfi_offset 6, -16
	movq	%rsp, %rbp
	.seh_setframe	%rbp, 0
	.cfi_def_cfa_register 6
	subq	$64, %rsp
	.seh_stackalloc	64
	.seh_endprologue
	movq	%rcx, 16(%rbp)
	.loc 5 565 19
	movq	16(%rbp), %rax
	addq	$16, %rax
	movq	%rax, %rcx
	call	_ZNSt23_Sp_counted_ptr_inplaceI11StartScreenSaIS0_ELN9__gnu_cxx12_Lock_policyE2EE5_Impl8_M_allocEv
	movq	%rax, %rdx
	leaq	-1(%rbp), %rax
	movq	%rax, %rcx
	call	_ZNSaISt23_Sp_counted_ptr_inplaceI11StartScreenSaIS0_ELN9__gnu_cxx12_Lock_policyE2EEEC1IS0_EERKSaIT_E
	.loc 5 566 36
	leaq	-1(%rbp), %rdx
	leaq	-32(%rbp), %rax
	movq	16(%rbp), %r8
	movq	%rax, %rcx
	call	_ZNSt15__allocated_ptrISaISt23_Sp_counted_ptr_inplaceI11StartScreenSaIS1_ELN9__gnu_cxx12_Lock_policyE2EEEEC1ERS6_PS5_
	.loc 5 567 2
	movq	16(%rbp), %rcx
	call	_ZNSt23_Sp_counted_ptr_inplaceI11StartScreenSaIS0_ELN9__gnu_cxx12_Lock_policyE2EED1Ev
	.loc 5 566 36
	leaq	-32(%rbp), %rax
	movq	%rax, %rcx
	call	_ZNSt15__allocated_ptrISaISt23_Sp_counted_ptr_inplaceI11StartScreenSaIS1_ELN9__gnu_cxx12_Lock_policyE2EEEED1Ev
	.loc 5 565 19
	leaq	-1(%rbp), %rax
	movq	%rax, %rcx
	call	_ZNSaISt23_Sp_counted_ptr_inplaceI11StartScreenSaIS0_ELN9__gnu_cxx12_Lock_policyE2EEED1Ev
	.loc 5 568 7
	nop
	addq	$64, %rsp
	popq	%rbp
	.cfi_restore 6
	.cfi_def_cfa 7, 8
	ret
	.cfi_endproc
.LFE6061:
	.seh_endproc
	.section	.text$_ZNSt23_Sp_counted_ptr_inplaceI11StartScreenSaIS0_ELN9__gnu_cxx12_Lock_policyE2EE14_M_get_deleterERKSt9type_info,"x"
	.linkonce discard
	.align 2
	.globl	_ZNSt23_Sp_counted_ptr_inplaceI11StartScreenSaIS0_ELN9__gnu_cxx12_Lock_policyE2EE14_M_get_deleterERKSt9type_info
	.def	_ZNSt23_Sp_counted_ptr_inplaceI11StartScreenSaIS0_ELN9__gnu_cxx12_Lock_policyE2EE14_M_get_deleterERKSt9type_info;	.scl	2;	.type	32;	.endef
	.seh_proc	_ZNSt23_Sp_counted_ptr_inplaceI11StartScreenSaIS0_ELN9__gnu_cxx12_Lock_policyE2EE14_M_get_deleterERKSt9type_info
_ZNSt23_Sp_counted_ptr_inplaceI11StartScreenSaIS0_ELN9__gnu_cxx12_Lock_policyE2EE14_M_get_deleterERKSt9type_info:
.LFB6062:
	.loc 5 572 7
	.cfi_startproc
	pushq	%rbp
	.seh_pushreg	%rbp
	.cfi_def_cfa_offset 16
	.cfi_offset 6, -16
	movq	%rsp, %rbp
	.seh_setframe	%rbp, 0
	.cfi_def_cfa_register 6
	subq	$32, %rsp
	.seh_stackalloc	32
	.seh_endprologue
	movq	%rcx, 16(%rbp)
	movq	%rdx, 24(%rbp)
	.loc 5 575 11
	movq	24(%rbp), %rax
	leaq	_ZTISt19_Sp_make_shared_tag(%rip), %rdx
	movq	%rax, %rcx
	call	_ZNKSt9type_infoeqERKS_
	.loc 5 575 2
	testb	%al, %al
	je	.L346
	.loc 5 579 11
	movq	16(%rbp), %rcx
	call	_ZNSt23_Sp_counted_ptr_inplaceI11StartScreenSaIS0_ELN9__gnu_cxx12_Lock_policyE2EE6_M_ptrEv
	.loc 5 579 62
	jmp	.L347
.L346:
	.loc 5 580 9
	movl	$0, %eax
.L347:
	.loc 5 581 7
	addq	$32, %rsp
	popq	%rbp
	.cfi_restore 6
	.cfi_def_cfa 7, 8
	ret
	.cfi_endproc
.LFE6062:
	.seh_endproc
	.section	.text$_ZNSt23_Sp_counted_ptr_inplaceI5LevelSaIS0_ELN9__gnu_cxx12_Lock_policyE2EE5_Impl8_M_allocEv,"x"
	.linkonce discard
	.align 2
	.globl	_ZNSt23_Sp_counted_ptr_inplaceI5LevelSaIS0_ELN9__gnu_cxx12_Lock_policyE2EE5_Impl8_M_allocEv
	.def	_ZNSt23_Sp_counted_ptr_inplaceI5LevelSaIS0_ELN9__gnu_cxx12_Lock_policyE2EE5_Impl8_M_allocEv;	.scl	2;	.type	32;	.endef
	.seh_proc	_ZNSt23_Sp_counted_ptr_inplaceI5LevelSaIS0_ELN9__gnu_cxx12_Lock_policyE2EE5_Impl8_M_allocEv
_ZNSt23_Sp_counted_ptr_inplaceI5LevelSaIS0_ELN9__gnu_cxx12_Lock_policyE2EE5_Impl8_M_allocEv:
.LFB6063:
	.loc 5 535 10
	.cfi_startproc
	pushq	%rbp
	.seh_pushreg	%rbp
	.cfi_def_cfa_offset 16
	.cfi_offset 6, -16
	movq	%rsp, %rbp
	.seh_setframe	%rbp, 0
	.cfi_def_cfa_register 6
	subq	$32, %rsp
	.seh_stackalloc	32
	.seh_endprologue
	movq	%rcx, 16(%rbp)
	.loc 5 535 54
	movq	16(%rbp), %rcx
	call	_ZNSt14_Sp_ebo_helperILi0ESaI5LevelELb1EE6_S_getERS2_
	.loc 5 535 63
	addq	$32, %rsp
	popq	%rbp
	.cfi_restore 6
	.cfi_def_cfa 7, 8
	ret
	.cfi_endproc
.LFE6063:
	.seh_endproc
	.section	.text$_ZNSt16allocator_traitsISaI5LevelEE7destroyIS0_EEvRS1_PT_,"x"
	.linkonce discard
	.globl	_ZNSt16allocator_traitsISaI5LevelEE7destroyIS0_EEvRS1_PT_
	.def	_ZNSt16allocator_traitsISaI5LevelEE7destroyIS0_EEvRS1_PT_;	.scl	2;	.type	32;	.endef
	.seh_proc	_ZNSt16allocator_traitsISaI5LevelEE7destroyIS0_EEvRS1_PT_
_ZNSt16allocator_traitsISaI5LevelEE7destroyIS0_EEvRS1_PT_:
.LFB6064:
	.loc 20 486 2
	.cfi_startproc
	pushq	%rbp
	.seh_pushreg	%rbp
	.cfi_def_cfa_offset 16
	.cfi_offset 6, -16
	movq	%rsp, %rbp
	.seh_setframe	%rbp, 0
	.cfi_def_cfa_register 6
	subq	$32, %rsp
	.seh_stackalloc	32
	.seh_endprologue
	movq	%rcx, 16(%rbp)
	movq	%rdx, 24(%rbp)
	.loc 20 487 4
	movq	24(%rbp), %rax
	movq	%rax, %rdx
	movq	16(%rbp), %rcx
	call	_ZN9__gnu_cxx13new_allocatorI5LevelE7destroyIS1_EEvPT_
	.loc 20 487 22
	nop
	addq	$32, %rsp
	popq	%rbp
	.cfi_restore 6
	.cfi_def_cfa 7, 8
	ret
	.cfi_endproc
.LFE6064:
	.seh_endproc
	.section	.text$_ZNSt23_Sp_counted_ptr_inplaceI11StartScreenSaIS0_ELN9__gnu_cxx12_Lock_policyE2EE5_Impl8_M_allocEv,"x"
	.linkonce discard
	.align 2
	.globl	_ZNSt23_Sp_counted_ptr_inplaceI11StartScreenSaIS0_ELN9__gnu_cxx12_Lock_policyE2EE5_Impl8_M_allocEv
	.def	_ZNSt23_Sp_counted_ptr_inplaceI11StartScreenSaIS0_ELN9__gnu_cxx12_Lock_policyE2EE5_Impl8_M_allocEv;	.scl	2;	.type	32;	.endef
	.seh_proc	_ZNSt23_Sp_counted_ptr_inplaceI11StartScreenSaIS0_ELN9__gnu_cxx12_Lock_policyE2EE5_Impl8_M_allocEv
_ZNSt23_Sp_counted_ptr_inplaceI11StartScreenSaIS0_ELN9__gnu_cxx12_Lock_policyE2EE5_Impl8_M_allocEv:
.LFB6065:
	.loc 5 535 10
	.cfi_startproc
	pushq	%rbp
	.seh_pushreg	%rbp
	.cfi_def_cfa_offset 16
	.cfi_offset 6, -16
	movq	%rsp, %rbp
	.seh_setframe	%rbp, 0
	.cfi_def_cfa_register 6
	subq	$32, %rsp
	.seh_stackalloc	32
	.seh_endprologue
	movq	%rcx, 16(%rbp)
	.loc 5 535 54
	movq	16(%rbp), %rcx
	call	_ZNSt14_Sp_ebo_helperILi0ESaI11StartScreenELb1EE6_S_getERS2_
	.loc 5 535 63
	addq	$32, %rsp
	popq	%rbp
	.cfi_restore 6
	.cfi_def_cfa 7, 8
	ret
	.cfi_endproc
.LFE6065:
	.seh_endproc
	.section	.text$_ZNSt16allocator_traitsISaI11StartScreenEE7destroyIS0_EEvRS1_PT_,"x"
	.linkonce discard
	.globl	_ZNSt16allocator_traitsISaI11StartScreenEE7destroyIS0_EEvRS1_PT_
	.def	_ZNSt16allocator_traitsISaI11StartScreenEE7destroyIS0_EEvRS1_PT_;	.scl	2;	.type	32;	.endef
	.seh_proc	_ZNSt16allocator_traitsISaI11StartScreenEE7destroyIS0_EEvRS1_PT_
_ZNSt16allocator_traitsISaI11StartScreenEE7destroyIS0_EEvRS1_PT_:
.LFB6066:
	.loc 20 486 2
	.cfi_startproc
	pushq	%rbp
	.seh_pushreg	%rbp
	.cfi_def_cfa_offset 16
	.cfi_offset 6, -16
	movq	%rsp, %rbp
	.seh_setframe	%rbp, 0
	.cfi_def_cfa_register 6
	subq	$32, %rsp
	.seh_stackalloc	32
	.seh_endprologue
	movq	%rcx, 16(%rbp)
	movq	%rdx, 24(%rbp)
	.loc 20 487 4
	movq	24(%rbp), %rax
	movq	%rax, %rdx
	movq	16(%rbp), %rcx
	call	_ZN9__gnu_cxx13new_allocatorI11StartScreenE7destroyIS1_EEvPT_
	.loc 20 487 22
	nop
	addq	$32, %rsp
	popq	%rbp
	.cfi_restore 6
	.cfi_def_cfa 7, 8
	ret
	.cfi_endproc
.LFE6066:
	.seh_endproc
	.section	.text$_ZNSt14_Sp_ebo_helperILi0ESaI5LevelELb1EE6_S_getERS2_,"x"
	.linkonce discard
	.globl	_ZNSt14_Sp_ebo_helperILi0ESaI5LevelELb1EE6_S_getERS2_
	.def	_ZNSt14_Sp_ebo_helperILi0ESaI5LevelELb1EE6_S_getERS2_;	.scl	2;	.type	32;	.endef
	.seh_proc	_ZNSt14_Sp_ebo_helperILi0ESaI5LevelELb1EE6_S_getERS2_
_ZNSt14_Sp_ebo_helperILi0ESaI5LevelELb1EE6_S_getERS2_:
.LFB6067:
	.loc 5 424 7
	.cfi_startproc
	pushq	%rbp
	.seh_pushreg	%rbp
	.cfi_def_cfa_offset 16
	.cfi_offset 6, -16
	movq	%rsp, %rbp
	.seh_setframe	%rbp, 0
	.cfi_def_cfa_register 6
	.seh_endprologue
	movq	%rcx, 16(%rbp)
	.loc 5 424 71
	movq	16(%rbp), %rax
	.loc 5 424 74
	popq	%rbp
	.cfi_restore 6
	.cfi_def_cfa 7, 8
	ret
	.cfi_endproc
.LFE6067:
	.seh_endproc
	.section	.text$_ZN9__gnu_cxx13new_allocatorI5LevelE7destroyIS1_EEvPT_,"x"
	.linkonce discard
	.align 2
	.globl	_ZN9__gnu_cxx13new_allocatorI5LevelE7destroyIS1_EEvPT_
	.def	_ZN9__gnu_cxx13new_allocatorI5LevelE7destroyIS1_EEvPT_;	.scl	2;	.type	32;	.endef
	.seh_proc	_ZN9__gnu_cxx13new_allocatorI5LevelE7destroyIS1_EEvPT_
_ZN9__gnu_cxx13new_allocatorI5LevelE7destroyIS1_EEvPT_:
.LFB6068:
	.loc 14 140 2
	.cfi_startproc
	pushq	%rbp
	.seh_pushreg	%rbp
	.cfi_def_cfa_offset 16
	.cfi_offset 6, -16
	movq	%rsp, %rbp
	.seh_setframe	%rbp, 0
	.cfi_def_cfa_register 6
	subq	$32, %rsp
	.seh_stackalloc	32
	.seh_endprologue
	movq	%rcx, 16(%rbp)
	movq	%rdx, 24(%rbp)
	.loc 14 140 22
	movq	24(%rbp), %rax
	movq	(%rax), %rax
	addq	$24, %rax
	movq	(%rax), %rax
	movq	24(%rbp), %rdx
	movq	%rdx, %rcx
	call	*%rax
.LVL13:
	.loc 14 140 35
	nop
	addq	$32, %rsp
	popq	%rbp
	.cfi_restore 6
	.cfi_def_cfa 7, 8
	ret
	.cfi_endproc
.LFE6068:
	.seh_endproc
	.section	.text$_ZNSt14_Sp_ebo_helperILi0ESaI11StartScreenELb1EE6_S_getERS2_,"x"
	.linkonce discard
	.globl	_ZNSt14_Sp_ebo_helperILi0ESaI11StartScreenELb1EE6_S_getERS2_
	.def	_ZNSt14_Sp_ebo_helperILi0ESaI11StartScreenELb1EE6_S_getERS2_;	.scl	2;	.type	32;	.endef
	.seh_proc	_ZNSt14_Sp_ebo_helperILi0ESaI11StartScreenELb1EE6_S_getERS2_
_ZNSt14_Sp_ebo_helperILi0ESaI11StartScreenELb1EE6_S_getERS2_:
.LFB6083:
	.loc 5 424 7
	.cfi_startproc
	pushq	%rbp
	.seh_pushreg	%rbp
	.cfi_def_cfa_offset 16
	.cfi_offset 6, -16
	movq	%rsp, %rbp
	.seh_setframe	%rbp, 0
	.cfi_def_cfa_register 6
	.seh_endprologue
	movq	%rcx, 16(%rbp)
	.loc 5 424 71
	movq	16(%rbp), %rax
	.loc 5 424 74
	popq	%rbp
	.cfi_restore 6
	.cfi_def_cfa 7, 8
	ret
	.cfi_endproc
.LFE6083:
	.seh_endproc
	.section	.text$_ZN9__gnu_cxx13new_allocatorI11StartScreenE7destroyIS1_EEvPT_,"x"
	.linkonce discard
	.align 2
	.globl	_ZN9__gnu_cxx13new_allocatorI11StartScreenE7destroyIS1_EEvPT_
	.def	_ZN9__gnu_cxx13new_allocatorI11StartScreenE7destroyIS1_EEvPT_;	.scl	2;	.type	32;	.endef
	.seh_proc	_ZN9__gnu_cxx13new_allocatorI11StartScreenE7destroyIS1_EEvPT_
_ZN9__gnu_cxx13new_allocatorI11StartScreenE7destroyIS1_EEvPT_:
.LFB6084:
	.loc 14 140 2
	.cfi_startproc
	pushq	%rbp
	.seh_pushreg	%rbp
	.cfi_def_cfa_offset 16
	.cfi_offset 6, -16
	movq	%rsp, %rbp
	.seh_setframe	%rbp, 0
	.cfi_def_cfa_register 6
	subq	$32, %rsp
	.seh_stackalloc	32
	.seh_endprologue
	movq	%rcx, 16(%rbp)
	movq	%rdx, 24(%rbp)
	.loc 14 140 22
	movq	24(%rbp), %rax
	movq	(%rax), %rax
	addq	$24, %rax
	movq	(%rax), %rax
	movq	24(%rbp), %rdx
	movq	%rdx, %rcx
	call	*%rax
.LVL14:
	.loc 14 140 35
	nop
	addq	$32, %rsp
	popq	%rbp
	.cfi_restore 6
	.cfi_def_cfa 7, 8
	ret
	.cfi_endproc
.LFE6084:
	.seh_endproc
	.globl	_ZTISt11_Mutex_baseILN9__gnu_cxx12_Lock_policyE2EE
	.section	.rdata$_ZTISt11_Mutex_baseILN9__gnu_cxx12_Lock_policyE2EE,"dr"
	.linkonce same_size
	.align 8
_ZTISt11_Mutex_baseILN9__gnu_cxx12_Lock_policyE2EE:
	.quad	_ZTVN10__cxxabiv117__class_type_infoE+16
	.quad	_ZTSSt11_Mutex_baseILN9__gnu_cxx12_Lock_policyE2EE
	.globl	_ZTSSt11_Mutex_baseILN9__gnu_cxx12_Lock_policyE2EE
	.section	.rdata$_ZTSSt11_Mutex_baseILN9__gnu_cxx12_Lock_policyE2EE,"dr"
	.linkonce same_size
	.align 32
_ZTSSt11_Mutex_baseILN9__gnu_cxx12_Lock_policyE2EE:
	.ascii "St11_Mutex_baseILN9__gnu_cxx12_Lock_policyE2EE\0"
	.text
	.def	_GLOBAL__sub_I__ZN4GameC2ERKN3glm3vecILi2EiLNS0_9qualifierE0EEE;	.scl	3;	.type	32;	.endef
	.seh_proc	_GLOBAL__sub_I__ZN4GameC2ERKN3glm3vecILi2EiLNS0_9qualifierE0EEE
_GLOBAL__sub_I__ZN4GameC2ERKN3glm3vecILi2EiLNS0_9qualifierE0EEE:
.LFB6152:
	.loc 7 103 2
	.cfi_startproc
	pushq	%rbp
	.seh_pushreg	%rbp
	.cfi_def_cfa_offset 16
	.cfi_offset 6, -16
	movq	%rsp, %rbp
	.seh_setframe	%rbp, 0
	.cfi_def_cfa_register 6
	subq	$32, %rsp
	.seh_stackalloc	32
	.seh_endprologue
	.loc 7 103 2
	movl	$65535, %edx
	movl	$1, %ecx
	call	_Z41__static_initialization_and_destruction_0ii
	nop
	addq	$32, %rsp
	popq	%rbp
	.cfi_restore 6
	.cfi_def_cfa 7, 8
	ret
	.cfi_endproc
.LFE6152:
	.seh_endproc
	.section	.ctors,"w"
	.align 8
	.quad	_GLOBAL__sub_I__ZN4GameC2ERKN3glm3vecILi2EiLNS0_9qualifierE0EEE
	.section .rdata,"dr"
	.align 4
.LC3:
	.long	1120403456
	.align 4
.LC4:
	.long	-1027080192
	.align 4
.LC8:
	.long	1065353216
	.align 4
.LC9:
	.long	1073741824
	.align 4
.LC10:
	.long	-1073741824
	.align 16
.LC11:
	.long	-2147483648
	.long	0
	.long	0
	.long	0
	.text
.Letext0:
	.file 24 "C:/Program Files/CodeBlocks/MinGW/lib/gcc/x86_64-w64-mingw32/8.1.0/include/c++/bits/basic_string.h"
	.file 25 "C:/Program Files/CodeBlocks/MinGW/lib/gcc/x86_64-w64-mingw32/8.1.0/include/c++/bits/basic_string.tcc"
	.file 26 "C:/Program Files/CodeBlocks/MinGW/lib/gcc/x86_64-w64-mingw32/8.1.0/include/c++/bits/stringfwd.h"
	.file 27 "C:/Program Files/CodeBlocks/MinGW/lib/gcc/x86_64-w64-mingw32/8.1.0/include/c++/cstdlib"
	.file 28 "C:/Program Files/CodeBlocks/MinGW/lib/gcc/x86_64-w64-mingw32/8.1.0/include/c++/bits/std_abs.h"
	.file 29 "C:/Program Files/CodeBlocks/MinGW/lib/gcc/x86_64-w64-mingw32/8.1.0/include/c++/cstddef"
	.file 30 "C:/Program Files/CodeBlocks/MinGW/lib/gcc/x86_64-w64-mingw32/8.1.0/include/c++/x86_64-w64-mingw32/bits/c++config.h"
	.file 31 "C:/Program Files/CodeBlocks/MinGW/lib/gcc/x86_64-w64-mingw32/8.1.0/include/c++/cstdint"
	.file 32 "C:/Program Files/CodeBlocks/MinGW/lib/gcc/x86_64-w64-mingw32/8.1.0/include/c++/type_traits"
	.file 33 "C:/Program Files/CodeBlocks/MinGW/lib/gcc/x86_64-w64-mingw32/8.1.0/include/c++/bits/stl_pair.h"
	.file 34 "C:/Program Files/CodeBlocks/MinGW/lib/gcc/x86_64-w64-mingw32/8.1.0/include/c++/bits/exception_ptr.h"
	.file 35 "C:/Program Files/CodeBlocks/MinGW/lib/gcc/x86_64-w64-mingw32/8.1.0/include/c++/bits/cpp_type_traits.h"
	.file 36 "C:/Program Files/CodeBlocks/MinGW/lib/gcc/x86_64-w64-mingw32/8.1.0/include/c++/bits/stl_iterator_base_types.h"
	.file 37 "C:/Program Files/CodeBlocks/MinGW/lib/gcc/x86_64-w64-mingw32/8.1.0/include/c++/debug/debug.h"
	.file 38 "C:/Program Files/CodeBlocks/MinGW/lib/gcc/x86_64-w64-mingw32/8.1.0/include/c++/cwchar"
	.file 39 "C:/Program Files/CodeBlocks/MinGW/lib/gcc/x86_64-w64-mingw32/8.1.0/include/c++/bits/char_traits.h"
	.file 40 "C:/Program Files/CodeBlocks/MinGW/lib/gcc/x86_64-w64-mingw32/8.1.0/include/c++/clocale"
	.file 41 "C:/Program Files/CodeBlocks/MinGW/lib/gcc/x86_64-w64-mingw32/8.1.0/include/c++/cstdio"
	.file 42 "C:/Program Files/CodeBlocks/MinGW/lib/gcc/x86_64-w64-mingw32/8.1.0/include/c++/initializer_list"
	.file 43 "C:/Program Files/CodeBlocks/MinGW/lib/gcc/x86_64-w64-mingw32/8.1.0/include/c++/bits/uses_allocator.h"
	.file 44 "C:/Program Files/CodeBlocks/MinGW/lib/gcc/x86_64-w64-mingw32/8.1.0/include/c++/tuple"
	.file 45 "C:/Program Files/CodeBlocks/MinGW/lib/gcc/x86_64-w64-mingw32/8.1.0/include/c++/bits/stl_tree.h"
	.file 46 "C:/Program Files/CodeBlocks/MinGW/lib/gcc/x86_64-w64-mingw32/8.1.0/include/c++/bits/vector.tcc"
	.file 47 "C:/Program Files/CodeBlocks/MinGW/lib/gcc/x86_64-w64-mingw32/8.1.0/include/c++/cmath"
	.file 48 "C:/Program Files/CodeBlocks/MinGW/lib/gcc/x86_64-w64-mingw32/8.1.0/include/c++/bits/stl_function.h"
	.file 49 "C:/Program Files/CodeBlocks/MinGW/lib/gcc/x86_64-w64-mingw32/8.1.0/include/c++/bits/stl_map.h"
	.file 50 "C:/Program Files/CodeBlocks/MinGW/lib/gcc/x86_64-w64-mingw32/8.1.0/include/c++/bits/hashtable_policy.h"
	.file 51 "C:/Program Files/CodeBlocks/MinGW/lib/gcc/x86_64-w64-mingw32/8.1.0/include/c++/functional"
	.file 52 "C:/Program Files/CodeBlocks/MinGW/lib/gcc/x86_64-w64-mingw32/8.1.0/include/c++/system_error"
	.file 53 "C:/Program Files/CodeBlocks/MinGW/lib/gcc/x86_64-w64-mingw32/8.1.0/include/c++/bits/ios_base.h"
	.file 54 "C:/Program Files/CodeBlocks/MinGW/lib/gcc/x86_64-w64-mingw32/8.1.0/include/c++/cwctype"
	.file 55 "C:/Program Files/CodeBlocks/MinGW/lib/gcc/x86_64-w64-mingw32/8.1.0/include/c++/iosfwd"
	.file 56 "C:/Program Files/CodeBlocks/MinGW/lib/gcc/x86_64-w64-mingw32/8.1.0/include/c++/bits/stl_iterator_base_funcs.h"
	.file 57 "C:/Program Files/CodeBlocks/MinGW/lib/gcc/x86_64-w64-mingw32/8.1.0/include/c++/bits/predefined_ops.h"
	.file 58 "C:/Program Files/CodeBlocks/MinGW/lib/gcc/x86_64-w64-mingw32/8.1.0/include/c++/ext/numeric_traits.h"
	.file 59 "C:/Program Files/CodeBlocks/MinGW/lib/gcc/x86_64-w64-mingw32/8.1.0/include/c++/ext/alloc_traits.h"
	.file 60 "C:/Program Files/CodeBlocks/MinGW/lib/gcc/x86_64-w64-mingw32/8.1.0/include/c++/bits/stl_iterator.h"
	.file 61 "C:/Program Files/CodeBlocks/MinGW/lib/gcc/x86_64-w64-mingw32/8.1.0/include/c++/ext/concurrence.h"
	.file 62 "C:/Program Files/CodeBlocks/MinGW/lib/gcc/x86_64-w64-mingw32/8.1.0/include/c++/ext/type_traits.h"
	.file 63 "C:/Program Files/CodeBlocks/MinGW/x86_64-w64-mingw32/include/corecrt.h"
	.file 64 "C:/Program Files/CodeBlocks/MinGW/x86_64-w64-mingw32/include/locale.h"
	.file 65 "C:/Program Files/CodeBlocks/MinGW/x86_64-w64-mingw32/include/stdlib.h"
	.file 66 "C:/Program Files/CodeBlocks/MinGW/x86_64-w64-mingw32/include/malloc.h"
	.file 67 "C:/Program Files/CodeBlocks/MinGW/lib/gcc/x86_64-w64-mingw32/8.1.0/include/c++/stdlib.h"
	.file 68 "C:/Program Files/CodeBlocks/MinGW/x86_64-w64-mingw32/include/stddef.h"
	.file 69 "N:/CPP_prj/SimpleCoding/BattleCity/external/glm/glm/detail/setup.hpp"
	.file 70 "N:/CPP_prj/SimpleCoding/BattleCity/external/glm/glm/detail/func_exponential.inl"
	.file 71 "N:/CPP_prj/SimpleCoding/BattleCity/external/glm/glm/detail/qualifier.hpp"
	.file 72 "N:/CPP_prj/SimpleCoding/BattleCity/external/glm/glm/detail/type_vec2.hpp"
	.file 73 "N:/CPP_prj/SimpleCoding/BattleCity/external/glm/glm/detail/type_vec2.inl"
	.file 74 "N:/CPP_prj/SimpleCoding/BattleCity/external/glm/glm/ext/vector_int2.hpp"
	.file 75 "N:/CPP_prj/SimpleCoding/BattleCity/external/glm/glm/detail/func_common.inl"
	.file 76 "N:/CPP_prj/SimpleCoding/BattleCity/external/glm/glm/ext/matrix_float4x4.hpp"
	.file 77 "N:/CPP_prj/SimpleCoding/BattleCity/external/glm/glm/ext/vector_float2.hpp"
	.file 78 "N:/CPP_prj/SimpleCoding/BattleCity/external/glm/glm/detail/func_trigonometric.inl"
	.file 79 "N:/CPP_prj/SimpleCoding/BattleCity/external/glm/glm/detail/type_mat2x2.hpp"
	.file 80 "N:/CPP_prj/SimpleCoding/BattleCity/external/glm/glm/detail/type_mat2x2.inl"
	.file 81 "N:/CPP_prj/SimpleCoding/BattleCity/external/glm/glm/detail/type_mat3x3.hpp"
	.file 82 "N:/CPP_prj/SimpleCoding/BattleCity/external/glm/glm/detail/type_mat3x3.inl"
	.file 83 "N:/CPP_prj/SimpleCoding/BattleCity/external/glm/glm/detail/type_mat2x3.hpp"
	.file 84 "N:/CPP_prj/SimpleCoding/BattleCity/external/glm/glm/detail/type_mat2x3.inl"
	.file 85 "N:/CPP_prj/SimpleCoding/BattleCity/external/glm/glm/detail/type_mat3x2.hpp"
	.file 86 "N:/CPP_prj/SimpleCoding/BattleCity/external/glm/glm/detail/type_mat3x2.inl"
	.file 87 "N:/CPP_prj/SimpleCoding/BattleCity/external/glm/glm/detail/type_mat2x4.hpp"
	.file 88 "N:/CPP_prj/SimpleCoding/BattleCity/external/glm/glm/detail/type_mat2x4.inl"
	.file 89 "N:/CPP_prj/SimpleCoding/BattleCity/external/glm/glm/detail/type_mat4x2.hpp"
	.file 90 "N:/CPP_prj/SimpleCoding/BattleCity/external/glm/glm/detail/type_mat4x2.inl"
	.file 91 "N:/CPP_prj/SimpleCoding/BattleCity/external/glm/glm/detail/type_mat3x4.hpp"
	.file 92 "N:/CPP_prj/SimpleCoding/BattleCity/external/glm/glm/detail/type_mat3x4.inl"
	.file 93 "N:/CPP_prj/SimpleCoding/BattleCity/external/glm/glm/detail/type_mat4x3.hpp"
	.file 94 "N:/CPP_prj/SimpleCoding/BattleCity/external/glm/glm/detail/type_mat4x3.inl"
	.file 95 "N:/CPP_prj/SimpleCoding/BattleCity/external/glm/glm/detail/type_vec3.hpp"
	.file 96 "N:/CPP_prj/SimpleCoding/BattleCity/external/glm/glm/detail/type_vec3.inl"
	.file 97 "C:/Program Files/CodeBlocks/MinGW/x86_64-w64-mingw32/include/stdint.h"
	.file 98 "C:/Program Files/CodeBlocks/MinGW/x86_64-w64-mingw32/include/wchar.h"
	.file 99 "C:/Program Files/CodeBlocks/MinGW/x86_64-w64-mingw32/include/swprintf.inl"
	.file 100 "C:/Program Files/CodeBlocks/MinGW/x86_64-w64-mingw32/include/stdio.h"
	.file 101 "C:/Program Files/CodeBlocks/MinGW/x86_64-w64-mingw32/include/ctype.h"
	.file 102 "C:/Program Files/CodeBlocks/MinGW/x86_64-w64-mingw32/include/time.h"
	.file 103 "C:/Program Files/CodeBlocks/MinGW/x86_64-w64-mingw32/include/pthread.h"
	.file 104 "C:/Program Files/CodeBlocks/MinGW/lib/gcc/x86_64-w64-mingw32/8.1.0/include/c++/x86_64-w64-mingw32/bits/atomic_word.h"
	.file 105 "N:/CPP_prj/SimpleCoding/BattleCity/src/Game/Game.h"
	.file 106 "N:/CPP_prj/SimpleCoding/BattleCity/src/Game/GameStates/IGameState.h"
	.file 107 "N:/CPP_prj/SimpleCoding/BattleCity/external/glad/include/glad/glad.h"
	.file 108 "N:/CPP_prj/SimpleCoding/BattleCity/external/glad/include/KHR/khrplatform.h"
	.file 109 "C:/Program Files/CodeBlocks/MinGW/x86_64-w64-mingw32/include/math.h"
	.file 110 "N:/CPP_prj/SimpleCoding/BattleCity/src/Renderer/ShaderProgram.h"
	.file 111 "N:/CPP_prj/SimpleCoding/BattleCity/src/Renderer/Texture2D.h"
	.file 112 "N:/CPP_prj/SimpleCoding/BattleCity/src/Renderer/VertexBuffer.h"
	.file 113 "N:/CPP_prj/SimpleCoding/BattleCity/src/Renderer/IndexBuffer.h"
	.file 114 "N:/CPP_prj/SimpleCoding/BattleCity/src/Renderer/VertexBufferLayout.h"
	.file 115 "N:/CPP_prj/SimpleCoding/BattleCity/src/Renderer/VertexArray.h"
	.file 116 "N:/CPP_prj/SimpleCoding/BattleCity/src/Renderer/Sprite.h"
	.file 117 "N:/CPP_prj/SimpleCoding/BattleCity/src/Physics/PhysicsEngine.h"
	.file 118 "C:/Program Files/CodeBlocks/MinGW/x86_64-w64-mingw32/include/wctype.h"
	.file 119 "<built-in>"
	.file 120 "C:/Program Files/CodeBlocks/MinGW/x86_64-w64-mingw32/include/assert.h"